(dp0
(S'excision'
p1
S'left'
p2
S'margin'
p3
S'medial'
p4
tp5
I1
s(S'neu'
p6
tp7
I5
s(S'breast'
p8
g1
S'g'
p9
g2
tp10
I1
s(S'final'
p11
tp12
I1
s(S'inferior'
p13
S'left'
p14
tp15
I1
s(S'excision'
p16
S'lateral'
p17
tp18
I2
s(S'b'
p19
g13
g14
tp20
I1
s(S'previously'
p21
S'reported'
p22
tp23
I1
s(S'breast'
p24
S'resulted'
p25
S'tumor'
p26
tp27
I12
s(S'largest'
p28
S'single'
p29
tp30
I18
s(S'dcis'
p31
S'overall'
p32
S'size'
p33
tp34
I17
s(S'margins'
p35
tp36
I2675
s(S'axillary'
p37
S'lymph'
p38
S'sentinel'
p39
tp40
I1
s(S'node'
p41
tp42
I2
s(S'breast'
p43
S'deep'
p44
S'excision'
p45
S'right'
p46
tp47
I1
s(S'invasion'
p48
S'lymphovascular'
p49
tp50
I618
s(g8
g9
g2
g3
tp51
I1
s(S'breast'
p52
g17
S'right'
p53
tp54
I1
s(S'breast'
p55
S'k'
p56
S'right'
p57
S'superior'
p58
tp59
I1
s(S'estimate'
p60
g33
tp61
I17
s(g37
S'excision'
p62
S'right'
p63
g39
tp64
I1
s(S'node'
p65
S'number'
p66
S'positive'
p67
tp68
I1
s(g37
g62
g38
g63
tp69
I1
s(S'dcis'
p70
S'extensive'
p71
S'intraductal'
p72
tp73
I1203
s(g44
S'margin'
p74
tp75
I2
s(g9
g3
tp76
I1
s(S'examined'
p77
S'lymph'
p78
S'nodes'
p79
tp80
I1893
s(g19
S'breast'
p81
g13
g14
S'margin'
p82
tp83
I1
s(S'note'
p84
tp85
I1
s(S'anterior'
p86
S'breast'
p87
S'excision'
p88
S'f'
p89
S'left'
p90
tp91
I1
s(S'breast'
p92
S'dcis'
p93
S'tissue'
p94
tp95
I1
s(S'extent'
p96
S'size'
p97
tp98
I123
s(g65
g67
S'total'
p99
tp100
I1
s(S'excision'
p101
g58
tp102
I2
s(g37
g62
g38
g41
g39
tp103
I1
s(S'breast'
p104
S'deep'
p105
S'left'
p106
tp107
I1
s(S'architectural'
p108
S'patterns'
p109
tp110
I21
s(S'margin'
p111
g57
g58
tp112
I1
s(g101
g111
g57
g58
tp113
I1
s(g8
g1
g9
g3
g4
tp114
I1
s(g37
g62
g38
g41
g63
g39
tp115
I1
s(S'bank'
p116
S'tissue'
p117
tp118
I2
s(g1
g9
g3
tp119
I1
s(g16
g53
tp120
I7
s(S'excision'
p121
S'inferior'
p122
S'right'
p123
tp124
I1
s(S'lobular'
p125
tp126
I10
s(S'examined'
p127
S'number'
p128
S'slides'
p129
tp130
I19
s(g122
S'margin'
p131
g123
tp132
I1
s(g101
g57
g58
tp133
I1
s(g89
tp134
I1
s(g13
g14
g82
tp135
I1
s(S'tumor'
p136
tp137
I4781
s(S'h'
p138
tp139
I1
s(g86
g90
tp140
I1
s(g32
tp141
I17
s(S'lymph'
p142
g65
g66
S'versus'
p143
tp144
I1
s(g65
g66
g67
g143
tp145
I1
s(S'left'
p146
S'margin'
p147
S'superior'
p148
tp149
I1
s(g142
g65
g99
g143
tp150
I1
s(g86
g87
g88
g89
S'margin'
p151
tp152
I1
s(g37
g62
tp153
I1
s(g25
tp154
I12
s(S'invasion'
p155
S'vascular'
p156
tp157
I62
s(S'breast'
p158
tp159
I3491
s(S'component'
p160
g70
g71
g72
tp161
I1203
s(g43
g44
g74
tp162
I2
s(S'breast'
p163
S'medial'
p164
S'right'
p165
tp166
I1
s(S'dimensions'
p167
tp168
I696
s(g19
g82
tp169
I1
s(g86
g87
g88
g90
tp170
I1
s(g16
S'margin'
p171
tp172
I12
s(g117
tp173
I3
s(g19
g81
g13
tp174
I1
s(S'diameter'
p175
g29
tp176
I18
s(S'her2'
p177
S'neu'
p178
tp179
I3
s(g56
g57
g58
tp180
I1
s(S'proportion'
p181
tp182
I637
s(S'markers'
p183
tp184
I3533
s(S'breast'
p185
g122
g123
tp186
I1
s(g37
g62
g63
tp187
I1
s(S'67'
p188
tp189
I557
s(S'size'
p190
g136
tp191
I676
s(S'positive'
p192
S'versus'
p193
tp194
I651
s(g101
g56
g111
g57
tp195
I1
s(g44
g74
g46
tp196
I1
s(S'dcis'
p197
tp198
I2656
s(g87
g89
tp199
I1
s(g55
g101
g111
g58
tp200
I2
s(S'one'
p201
tp202
I29
s(S'p53'
p203
tp204
I559
s(S'diagnosis'
p205
tp206
I1
s(g192
tp207
I652
s(S'dcis'
p208
S'tumor'
p209
tp210
I59
s(g56
tp211
I1
s(S'bank'
p212
S'tumor'
p213
tp214
I565
s(g19
g14
g82
tp215
I1
s(g175
g28
g29
tp216
I18
s(g142
g65
g99
tp217
I1
s(S'dcis'
p218
S'number'
p219
S'slides'
p220
tp221
I19
s(S'staging'
p222
S'tnm'
p223
tp224
I698
s(g122
tp225
I2
s(g86
g87
g88
g89
g90
g151
tp226
I1
s(g9
g3
g4
tp227
I1
s(S'breast'
p228
S'invasive'
p229
tp230
I2
s(g32
g33
tp231
I17
s(g101
g56
g111
g58
tp232
I1
s(g24
g25
tp233
I12
s(g197
S'measurement'
p234
tp235
I637
s(g55
g101
g56
g111
g57
g58
tp236
I1
s(g9
g2
g4
tp237
I1
s(g201
S'present'
p238
tp239
I29
s(g55
g101
g56
g111
tp240
I1
s(g142
g65
g67
g99
g143
tp241
I1
s(g38
g41
tp242
I2
s(g127
tp243
I1912
s(g89
g90
tp244
I1
s(S'wbl'
p245
tp246
I1
s(S'studies'
p247
tp248
I6
s(g37
g38
g41
tp249
I1
s(g87
g88
g89
g90
g151
tp250
I1
s(g19
S'excision'
p251
g13
g14
tp252
I1
s(g8
g9
g2
g4
tp253
I1
s(g88
g89
g151
tp254
I1
s(S'breast'
p255
S'lumpectomy'
p256
tp257
I2
s(S'largest'
p258
S'size'
p259
tp260
I578
s(g160
g72
tp261
I1203
s(g142
g66
g67
tp262
I1
s(g52
g171
tp263
I12
s(g49
tp264
I618
s(S'grade'
p265
S'nuclear'
p266
tp267
I21
s(g19
g251
g82
tp268
I1
s(g43
g44
tp269
I2
s(g101
g56
g58
tp270
I1
s(g65
g143
tp271
I1
s(S'lymph'
p272
S'nodes'
p273
tp274
I2476
s(g8
g1
g9
g2
g3
g4
tp275
I1
s(g16
g17
g171
g53
tp276
I1
s(g44
g45
g46
tp277
I1
s(g192
S'total'
p278
g193
tp279
I651
s(g55
g101
g56
g111
g58
tp280
I1
s(g19
g81
g251
g14
tp281
I1
s(g19
g251
g14
tp282
I1
s(g65
g66
g99
tp283
I1
s(g55
g56
g111
g57
tp284
I1
s(g19
g13
g82
tp285
I1
s(g37
g62
g38
g41
g63
tp286
I1
s(g278
tp287
I651
s(S'marker'
p288
g247
tp289
I6
s(g43
g44
g74
g46
tp290
I1
s(g185
g121
g122
g131
tp291
I2
s(g44
g45
g74
g46
tp292
I1
s(S'number'
p293
S'positive'
p294
S'versus'
p295
tp296
I647
s(g223
tp297
I698
s(g56
g57
tp298
I1
s(g62
g38
tp299
I1
s(g86
g90
g151
tp300
I1
s(g62
g39
tp301
I1
s(g1
g3
g4
tp302
I2
s(g19
g251
g13
g82
tp303
I1
s(g205
g11
tp304
I1
s(g155
S'lymphatic'
p305
g156
tp306
I62
s(g37
g62
g38
g39
tp307
I1
s(g258
tp308
I596
s(g138
S'right'
p309
tp310
I1
s(g9
g2
tp311
I1
s(g62
g38
g41
g63
g39
tp312
I1
s(g38
g41
g39
tp313
I1
s(g44
tp314
I2
s(S'necrosis'
p315
tp316
I21
s(g8
g9
tp317
I1
s(g19
g81
g82
tp318
I1
s(S'extensive'
p319
tp320
I1301
s(g65
g99
tp321
I1
s(g167
S'specimen'
p322
tp323
I696
s(g160
g71
g72
tp324
I1203
s(g58
tp325
I2
s(g272
tp326
I2478
s(g8
g1
g9
tp327
I1
s(g8
g1
g9
g4
tp328
I1
s(g38
g63
tp329
I1
s(g16
g171
g53
tp330
I6
s(g19
g81
g251
g82
tp331
I1
s(S'benign'
p332
g92
g94
tp333
I1
s(S'extension'
p334
tp335
I577
s(g332
g92
g93
g94
tp336
I1
s(g185
g122
g131
g123
tp337
I1
s(g201
g238
S'slide'
p338
tp339
I29
s(g158
g183
tp340
I3474
s(g52
g16
g53
tp341
I6
s(g86
g87
g88
tp342
I2
s(g17
tp343
I2
s(S'anterior'
p344
S'margin'
p345
S'right'
p346
tp347
I1
s(S'distance'
p348
S'margin'
p349
tp350
I689
s(g89
g151
tp351
I1
s(g3
g4
tp352
I2
s(g142
g66
g67
g99
g143
tp353
I1
s(g41
g39
tp354
I1
s(g37
g62
g38
g63
g39
tp355
I1
s(g8
g2
g3
g4
tp356
I1
s(g56
g111
g57
g58
tp357
I1
s(g293
g294
tp358
I648
s(g8
g1
g4
tp359
I2
s(g63
g39
tp360
I1
s(g288
tp361
I6
s(S'breast'
p362
S'excision'
p363
g146
g147
g148
tp364
I1
s(g142
g65
g66
g99
g143
tp365
I1
s(g8
g1
g2
g3
g4
tp366
I1
s(g288
g247
S'tumor'
p367
tp368
I6
s(g255
g138
tp369
I1
s(g105
S'excision'
p370
g106
tp371
I1
s(g185
g121
g122
g123
tp372
I1
s(g60
g32
g33
tp373
I17
s(g293
g295
tp374
I647
s(g41
g63
g39
tp375
I1
s(g163
S'excision'
p376
g164
g165
tp377
I1
s(g62
g38
g63
g39
tp378
I1
s(g101
g56
g111
tp379
I1
s(S'alh'
p380
S'lcis'
p381
tp382
I1
s(g96
S'lesion'
p383
tp384
I123
s(g19
g13
tp385
I1
s(g41
g63
tp386
I1
s(g376
S'margin'
p387
g164
g165
tp388
I1
s(g86
g88
tp389
I2
s(g37
g38
g41
g63
g39
tp390
I1
s(S'fish'
p391
S'her2'
p392
tp393
I1
s(g43
g44
g45
g74
g46
tp394
I1
s(S'positiv'
p395
tp396
I1
s(S'cancer'
p397
tp398
I672
s(g52
g16
g17
tp399
I2
s(g86
g88
g90
g151
tp400
I1
s(g87
g88
g89
g151
tp401
I1
s(g101
g111
g58
tp402
I2
s(g255
g138
g309
tp403
I1
s(g86
g87
g88
g90
g151
tp404
I1
s(g17
g171
g53
tp405
I1
s(g142
g65
g66
g67
tp406
I1
s(S'lateral'
p407
S'left'
p408
S'margin'
p409
tp410
I1
s(S'left'
p411
S'lumpectomy'
p412
tp413
I1
s(g55
g56
g111
tp414
I1
s(g55
g56
g111
g57
g58
tp415
I1
s(g8
g1
g9
g2
g3
tp416
I1
s(g17
g171
tp417
I2
s(g62
g41
g63
tp418
I1
s(S'breast'
p419
S'excision'
p420
g407
g408
tp421
I1
s(S'location'
p422
tp423
I26
s(g122
g123
tp424
I1
s(g2
g4
tp425
I1
s(S'axillary'
p426
g77
g79
tp427
I1881
s(g383
tp428
I123
s(g55
g101
g56
g57
tp429
I1
s(g8
g1
g9
g3
tp430
I1
s(g37
g39
tp431
I1
s(g55
g56
g58
tp432
I1
s(g55
g101
g111
g57
g58
tp433
I1
s(g1
g9
g2
g4
tp434
I1
s(g105
g106
tp435
I1
s(g24
S'markers'
p436
g25
g26
tp437
I12
s(g65
g66
g99
g143
tp438
I1
s(g52
g16
tp439
I12
s(g101
g56
g111
g57
g58
tp440
I1
s(g25
g26
tp441
I12
s(S'specimen'
p442
S'submitted'
p443
tp444
I697
s(g142
g66
g99
g143
tp445
I1
s(g19
g81
g251
tp446
I1
s(g8
g9
g2
tp447
I1
s(g87
g88
g89
g90
tp448
I1
s(g125
S'neoplasia'
p449
tp450
I10
s(g38
g41
g63
tp451
I1
s(g93
g94
tp452
I1
s(g55
g56
tp453
I1
s(S'sr'
p454
tp455
I1
s(g65
g67
tp456
I1
s(g86
g89
g90
g151
tp457
I1
s(g362
g146
g148
tp458
I1
s(S'calcifications'
p459
tp460
I2033
s(g8
g4
tp461
I2
s(g1
g9
g2
g3
tp462
I1
s(g175
tp463
I18
s(g142
g65
g67
g143
tp464
I1
s(g266
tp465
I21
s(g121
g122
g131
g123
tp466
I1
s(S'90'
p467
tp468
I1
s(g158
S'tumor'
p469
tp470
I3474
s(g37
g62
g41
g63
tp471
I1
sS'*****datapoint_count*****'
p472
I17614
s(g37
g38
g63
g39
tp473
I1
s(g142
g65
g66
g67
g143
tp474
I1
s(g109
tp475
I21
s(g56
g111
g58
tp476
I1
s(g19
g13
g14
g82
tp477
I1
s(S'her2'
p478
tp479
I566
s(g19
g81
g14
g82
tp480
I1
s(g332
g94
tp481
I1
s(g8
g9
g3
tp482
I1
s(g55
g56
g57
tp483
I1
s(g238
tp484
I29
s(g219
g220
tp485
I38
s(g293
S'total'
p486
tp487
I647
s(g19
g14
tp488
I1
s(g142
g143
tp489
I1
s(g380
tp490
I1
s(g86
g88
g89
g151
tp491
I1
s(g55
g111
g57
g58
tp492
I1
s(g86
g87
g88
g151
tp493
I2
s(g344
S'excision'
p494
g345
g346
tp495
I1
s(g55
g101
g56
g111
g57
tp496
I1
s(g251
g13
g14
tp497
I1
s(g52
g16
g171
g53
tp498
I6
s(g362
g146
g147
g148
tp499
I1
s(g146
g148
tp500
I1
s(g127
g129
tp501
I19
s(g344
S'breast'
p502
g345
g346
tp503
I1
s(g101
g56
g57
tp504
I1
s(g37
g63
tp505
I1
s(g138
g256
tp506
I1
s(g87
g89
g151
tp507
I1
s(g86
g88
g151
tp508
I2
s(g86
g151
tp509
I2
s(g273
tp510
I2476
s(g363
g146
g148
tp511
I1
s(S'axillary'
p512
g272
g273
tp513
I2464
s(g391
tp514
I1
s(g37
g41
g39
tp515
I1
s(g201
g338
tp516
I29
s(g383
g97
tp517
I123
s(g38
g41
g63
g39
tp518
I1
s(g183
g469
tp519
I3533
s(g185
g121
g122
g131
g123
tp520
I1
s(g86
g87
tp521
I2
s(g4
tp522
I2
s(g16
g17
g53
tp523
I1
s(g163
g376
g387
g164
g165
tp524
I1
s(g81
g13
g14
g82
tp525
I1
s(g43
g44
g45
g74
tp526
I2
s(S'dcis'
p527
S'invasive'
p528
tp529
I1
s(g65
g99
g143
tp530
I1
s(g426
g77
g78
g79
tp531
I1881
s(g96
tp532
I123
s(g348
tp533
I689
s(g288
g367
tp534
I6
s(g24
g436
g25
tp535
I12
s(g81
g13
g14
tp536
I1
s(g111
g58
tp537
I2
s(g19
g81
g251
g13
g14
g82
tp538
I1
s(g52
g16
g171
tp539
I12
s(g65
g67
g99
g143
tp540
I1
s(g293
tp541
I686
s(g52
g17
g171
g53
tp542
I1
s(g37
g62
g38
g41
tp543
I1
s(g512
g273
tp544
I2464
s(g142
g65
g66
tp545
I1
s(g53
tp546
I8
s(g62
g38
g63
tp547
I1
s(g171
g53
tp548
I6
s(g185
g122
tp549
I2
s(g37
g62
g39
tp550
I1
s(g251
g13
g14
g82
tp551
I1
s(g62
g38
g41
g63
tp552
I1
s(g8
g9
g3
g4
tp553
I1
s(g60
g32
tp554
I17
s(S'dcis'
p555
g319
tp556
I1301
s(S'excision'
p557
g35
tp558
I2675
s(g52
g16
g17
g171
g53
tp559
I1
s(g55
g56
g111
g58
tp560
I1
s(S'1'
p561
S'67'
p562
S'tumor'
p563
tp564
I1
s(g142
g99
g143
tp565
I1
s(g293
g486
g295
tp566
I647
s(g258
S'metastasis'
p567
g259
tp568
I578
s(g65
g66
g143
tp569
I1
s(g344
g502
g494
g345
g346
tp570
I1
s(S'component'
p571
g555
tp572
I1301
s(g104
g105
g106
S'margin'
p573
tp574
I1
s(S'breast'
p575
g411
g412
tp576
I1
s(S'2'
p577
g6
tp578
I2
s(g218
g219
tp579
I19
s(g190
tp580
I1394
s(g52
g16
g17
g53
tp581
I1
s(g19
g251
g13
tp582
I1
s(g37
g62
g41
g63
g39
tp583
I1
s(g142
g67
g99
tp584
I1
s(g8
g1
g9
g2
g4
tp585
I1
s(g31
g60
g33
tp586
I17
s(g407
g408
tp587
I1
s(g105
g106
g573
tp588
I1
s(S'pr'
p589
tp590
I591
s(g426
g77
tp591
I1881
s(g163
g387
g164
g165
tp592
I1
s(g89
g90
g151
tp593
I1
s(g222
tp594
I698
s(g218
g220
tp595
I19
s(g104
g105
g370
g106
g573
tp596
I1
s(g56
g58
tp597
I1
s(g344
g346
tp598
I1
s(g38
g39
tp599
I1
s(g86
g88
g89
g90
g151
tp600
I1
s(g146
g147
tp601
I6
s(g19
g251
g14
g82
tp602
I1
s(g175
g28
tp603
I18
s(g44
g45
g74
tp604
I2
s(g142
g66
g67
g143
tp605
I1
s(g142
g65
g66
g67
g99
tp606
I1
s(g419
g407
g408
g409
tp607
I1
s(g22
tp608
I1
s(g55
g111
g58
tp609
I2
s(g37
g62
g41
tp610
I1
s(g19
g251
tp611
I1
s(g1
g4
tp612
I2
s(g185
g121
g122
tp613
I2
s(g21
tp614
I1
s(g2
g3
g4
tp615
I1
s(g362
g146
tp616
I7
s(g101
g56
tp617
I1
s(g256
tp618
I2
s(g228
S'cancer'
p619
tp620
I2
s(g88
g89
g90
tp621
I1
s(g62
g41
g39
tp622
I1
s(g37
g38
g63
tp623
I1
s(g142
g66
tp624
I1
s(g55
g101
g56
g57
g58
tp625
I1
s(g62
g38
g41
g39
tp626
I1
s(g255
g256
g309
tp627
I1
s(g142
g66
g67
g99
tp628
I1
s(g561
g562
tp629
I1
s(g387
g164
g165
tp630
I1
s(g19
g251
g13
g14
g82
tp631
I1
s(g1
g9
g2
tp632
I1
s(g449
tp633
I10
s(g293
g294
g486
tp634
I647
s(g92
g93
tp635
I1
s(g9
g2
g3
g4
tp636
I1
s(g1
g2
g4
tp637
I1
s(g62
g38
g39
tp638
I1
s(S'invasive'
p639
tp640
I672
s(g567
g259
tp641
I578
s(g142
g66
g143
tp642
I1
s(g38
g63
g39
tp643
I1
s(g459
g422
tp644
I26
s(S'67'
p645
S'high'
p646
tp647
I3
s(g577
tp648
I2
s(g420
g407
g408
g409
tp649
I1
s(g62
g63
g39
tp650
I1
s(g87
g89
g90
tp651
I1
s(g86
g87
g90
g151
tp652
I1
s(g363
g146
g147
g148
tp653
I1
s(g86
g87
g89
g151
tp654
I1
s(S'histologic'
p655
S'type'
p656
tp657
I673
s(g142
g65
g67
g99
tp658
I1
s(g258
g567
tp659
I578
s(g142
g99
tp660
I1
s(g443
tp661
I697
s(g86
g89
g151
tp662
I1
s(g86
g87
g89
g90
tp663
I1
s(g142
g65
g66
g67
g99
g143
tp664
I1
s(g31
g32
tp665
I17
s(g86
g88
g89
tp666
I1
s(g88
g89
tp667
I1
s(g55
g101
g58
tp668
I2
s(g19
g81
g251
g13
g82
tp669
I1
s(g127
g128
tp670
I19
s(g164
g165
tp671
I1
s(g9
g4
tp672
I1
s(g31
g60
tp673
I17
s(g142
g65
g67
tp674
I1
s(g155
g305
tp675
I62
s(g332
g92
tp676
I1
s(g344
g502
g494
g346
tp677
I1
s(g37
g41
g63
g39
tp678
I1
s(g8
g3
g4
tp679
I2
s(g426
g77
g78
tp680
I1881
s(g185
g122
g131
tp681
I2
s(g96
g383
g97
tp682
I123
s(g397
g639
tp683
I672
s(g142
g65
g66
g99
tp684
I1
s(S'lcis'
p685
tp686
I665
s(g322
tp687
I1393
s(g8
g1
g2
g4
tp688
I1
s(g571
tp689
I1301
s(g37
g62
g38
tp690
I1
s(S'locations'
p691
tp692
I642
s(g362
g363
g146
g148
tp693
I1
s(g155
tp694
I680
s(g419
g420
g407
g408
g409
tp695
I1
s(g55
g101
g56
g58
tp696
I1
s(g562
g563
tp697
I1
s(g363
g146
g147
tp698
I6
s(g43
g44
g46
tp699
I1
s(g55
g57
g58
tp700
I1
s(g122
g131
tp701
I2
s(g44
g45
tp702
I2
s(g86
g87
g90
tp703
I1
s(g17
g53
tp704
I1
s(g19
g81
g251
g13
tp705
I1
s(g557
tp706
I2688
s(g255
g138
g256
tp707
I1
s(g19
tp708
I1
s(g57
g58
tp709
I1
s(g334
S'extranodal'
p710
tp711
I577
s(g142
g67
tp712
I1
s(g561
tp713
I1
s(g9
tp714
I1
s(g121
g122
tp715
I2
s(g655
tp716
I673
s(g362
g146
g147
tp717
I6
s(g62
g41
tp718
I1
s(g419
g407
g408
tp719
I1
s(g37
g63
g39
tp720
I1
s(g9
g2
g3
tp721
I1
s(g52
g171
g53
tp722
I6
s(g220
tp723
I38
s(g62
g38
g41
tp724
I1
s(g142
g67
g143
tp725
I1
s(g43
g44
g45
tp726
I2
s(g208
S'markers'
p727
g209
tp728
I59
s(g105
g370
g106
g573
tp729
I1
s(g92
g94
tp730
I1
s(g70
g72
tp731
I1203
s(g121
g122
g131
tp732
I2
s(g192
g278
tp733
I651
s(g8
g9
g4
tp734
I1
s(g108
tp735
I21
s(g19
g81
g13
g14
tp736
I1
s(g158
g183
g469
tp737
I3474
s(g37
g41
tp738
I1
s(g305
g156
tp739
I62
s(g293
g294
g486
g295
tp740
I647
s(g86
g87
g88
g89
tp741
I1
s(g19
g81
g251
g13
g14
tp742
I1
s(g278
g193
tp743
I651
s(g332
g93
tp744
I1
s(g8
g2
g4
tp745
I1
s(g656
tp746
I673
s(g19
g81
tp747
I1
s(g1
g9
tp748
I1
s(g646
tp749
I3
s(g55
g101
g56
tp750
I1
s(g1
g9
g3
g4
tp751
I1
s(g81
g251
g13
g14
tp752
I1
s(g19
g81
g14
tp753
I1
s(g228
g619
g229
tp754
I2
s(g56
g111
g57
tp755
I1
s(g19
g81
g13
g82
tp756
I1
s(g52
g17
g171
tp757
I2
s(g81
g251
g13
g14
g82
tp758
I1
s(g37
g62
g41
g39
tp759
I1
s(S'calcifications'
p760
g691
tp761
I642
s(g138
g256
g309
tp762
I1
s(g19
g81
g251
g14
g82
tp763
I1
s(g208
g727
tp764
I59
s(g87
g88
g89
tp765
I1
s(g160
g70
g72
tp766
I1203
s(g212
tp767
I567
s(g362
g363
g146
g147
tp768
I6
s(g1
g9
g2
g3
g4
tp769
I1
s(g561
g563
tp770
I1
s(g87
g89
g90
g151
tp771
I1
s(g349
tp772
I701
s(g55
g58
tp773
I2
s(g362
g363
g146
tp774
I6
s(g710
tp775
I577
s(g420
g407
g408
tp776
I1
s(g86
g89
tp777
I1
s(g197
g234
g181
tp778
I637
s(g39
tp779
I1
s(g8
g9
g2
g3
g4
tp780
I1
s(S'cancer'
p781
g527
g528
tp782
I1
s(g234
tp783
I637
s(g156
tp784
I62
s(g142
g65
g143
tp785
I1
s(g77
g78
tp786
I1893
s(g65
g66
g67
g99
g143
tp787
I1
s(g436
g25
g26
tp788
I12
s(g363
g146
tp789
I6
s(g571
g319
tp790
I1301
s(g376
g164
g165
tp791
I1
s(g88
g89
g90
g151
tp792
I1
s(g146
tp793
I7
s(g52
g17
tp794
I2
s(g332
g93
g94
tp795
I1
s(g29
tp796
I18
s(g781
g527
tp797
I1
s(g344
g502
g346
tp798
I1
s(g56
g111
tp799
I1
s(g86
g87
g89
tp800
I1
s(g16
g17
g171
tp801
I2
s(g60
tp802
I17
s(g86
tp803
I2
s(g37
g38
g41
g39
tp804
I1
s(g71
g72
tp805
I1203
s(g305
tp806
I62
s(g8
g1
g3
g4
tp807
I2
s(g256
g309
tp808
I1
s(g238
g338
tp809
I29
s(g332
g92
g93
tp810
I1
s(g332
tp811
I1
s(g1
g9
g4
tp812
I1
s(g436
g25
tp813
I12
s(g338
tp814
I29
s(g62
g41
g63
g39
tp815
I1
s(g344
g494
g346
tp816
I1
s(g101
g56
g57
g58
tp817
I1
s(g86
g87
g151
tp818
I2
s(g467
g395
tp819
I1
s(g37
g41
g63
tp820
I1
s(g77
g79
tp821
I1893
s(g65
g66
tp822
I1
s(g52
g16
g17
g171
tp823
I2
s(g52
g53
tp824
I7
s(g247
g367
tp825
I6
s(g31
g60
g32
tp826
I17
s(g234
g181
tp827
I637
s(g65
g66
g67
g99
tp828
I1
s(g86
g89
g90
tp829
I1
s(g197
g181
tp830
I637
s(g142
g67
g99
g143
tp831
I1
s(S'grade'
p832
tp833
I693
s(g512
tp834
I2465
s(g86
g88
g90
tp835
I1
s(g37
g38
g41
g63
tp836
I1
s(g86
g88
g89
g90
tp837
I1
s(g512
g272
tp838
I2465
s(g567
tp839
I578
s(g255
g138
g256
g309
tp840
I1
s(g193
tp841
I651
s(g55
g101
g57
g58
tp842
I1
s(g65
g67
g143
tp843
I1
s(g72
tp844
I1203
s(g571
g555
g319
tp845
I1301
s(g104
g105
g370
g106
tp846
I1
s(g86
g87
g89
g90
g151
tp847
I1
s(g142
g66
g99
tp848
I1
s(g44
g46
tp849
I1
s(g31
g33
tp850
I17
s(g31
g60
g32
g33
tp851
I17
s.