(dp0
(S'excision'
p1
S'left'
p2
S'margin'
p3
S'medial'
p4
tp5
I1
s(S'neu'
p6
tp7
I7
s(S'breast'
p8
g1
S'g'
p9
g2
tp10
I1
s(S'final'
p11
tp12
I1
s(S'inferior'
p13
S'left'
p14
tp15
I1
s(S'excision'
p16
S'lateral'
p17
tp18
I2
s(S'b'
p19
g13
g14
tp20
I1
s(S'previously'
p21
S'reported'
p22
tp23
I1
s(S'breast'
p24
S'resulted'
p25
S'tumor'
p26
tp27
I12
s(S'largest'
p28
S'single'
p29
tp30
I34
s(S'dcis'
p31
S'overall'
p32
S'size'
p33
tp34
I34
s(S'margins'
p35
tp36
I5645
s(S'axillary'
p37
S'lymph'
p38
S'sentinel'
p39
tp40
I1
s(S'node'
p41
tp42
I2
s(S'breast'
p43
S'deep'
p44
S'excision'
p45
S'right'
p46
tp47
I1
s(S'invasion'
p48
S'lymphovascular'
p49
tp50
I1377
s(g8
g9
g2
g3
tp51
I1
s(S'breast'
p52
g17
S'right'
p53
tp54
I1
s(S'breast'
p55
S'k'
p56
S'right'
p57
S'superior'
p58
tp59
I1
s(S'estimate'
p60
g33
tp61
I34
s(g37
S'excision'
p62
S'right'
p63
g39
tp64
I1
s(S'node'
p65
S'number'
p66
S'positive'
p67
tp68
I1
s(g37
g62
g38
g63
tp69
I1
s(S'dcis'
p70
S'extensive'
p71
S'intraductal'
p72
tp73
I2444
s(g44
S'margin'
p74
tp75
I2
s(g9
g3
tp76
I1
s(S'examined'
p77
S'lymph'
p78
S'nodes'
p79
tp80
I4314
s(g19
S'breast'
p81
g13
g14
S'margin'
p82
tp83
I1
s(S'note'
p84
tp85
I1
s(S'anterior'
p86
S'breast'
p87
S'excision'
p88
S'f'
p89
S'left'
p90
tp91
I1
s(S'breast'
p92
S'dcis'
p93
S'tissue'
p94
tp95
I1
s(S'extent'
p96
S'size'
p97
tp98
I241
s(g65
g67
S'total'
p99
tp100
I1
s(S'excision'
p101
g58
tp102
I2
s(g37
g62
g38
g41
g39
tp103
I1
s(S'breast'
p104
S'deep'
p105
S'left'
p106
tp107
I1
s(S'architectural'
p108
S'patterns'
p109
tp110
I40
s(S'margin'
p111
g57
g58
tp112
I1
s(g101
g111
g57
g58
tp113
I1
s(g8
g1
g9
g3
g4
tp114
I1
s(g37
g62
g38
g41
g63
g39
tp115
I1
s(S'bank'
p116
S'tissue'
p117
tp118
I2
s(g1
g9
g3
tp119
I1
s(g16
g53
tp120
I7
s(S'excision'
p121
S'inferior'
p122
S'right'
p123
tp124
I1
s(S'lobular'
p125
tp126
I16
s(S'examined'
p127
S'number'
p128
S'slides'
p129
tp130
I36
s(g122
S'margin'
p131
g123
tp132
I1
s(g101
g57
g58
tp133
I1
s(g89
tp134
I1
s(g13
g14
g82
tp135
I1
s(S'tumor'
p136
tp137
I9499
s(S'h'
p138
tp139
I1
s(g86
g90
tp140
I1
s(g32
tp141
I34
s(S'12'
p142
S'clock'
p143
tp144
I1
s(S'lymph'
p145
g65
g66
S'versus'
p146
tp147
I1
s(g65
g66
g67
g146
tp148
I1
s(S'left'
p149
S'margin'
p150
S'superior'
p151
tp152
I1
s(g145
g65
g99
g146
tp153
I1
s(g86
g87
g88
g89
S'margin'
p154
tp155
I1
s(g37
g62
tp156
I1
s(g25
tp157
I12
s(S'invasion'
p158
S'vascular'
p159
tp160
I62
s(S'breast'
p161
tp162
I7373
s(S'component'
p163
g70
g71
g72
tp164
I2444
s(g43
g44
g74
tp165
I2
s(S'breast'
p166
S'medial'
p167
S'right'
p168
tp169
I1
s(S'dimensions'
p170
tp171
I1475
s(g19
g82
tp172
I1
s(g86
g87
g88
g90
tp173
I1
s(g16
S'margin'
p174
tp175
I12
s(g117
tp176
I3
s(g19
g81
g13
tp177
I1
s(S'diameter'
p178
g29
tp179
I34
s(S'her2'
p180
S'neu'
p181
tp182
I5
s(g56
g57
g58
tp183
I1
s(S'proportion'
p184
tp185
I1323
s(S'67'
p186
S'focus'
p187
tp188
I1
s(S'markers'
p189
tp190
I7474
s(S'breast'
p191
g122
g123
tp192
I1
s(g37
g62
g63
tp193
I1
s(S'67'
p194
tp195
I1183
s(S'size'
p196
g136
tp197
I1436
s(S'positive'
p198
S'versus'
p199
tp200
I1382
s(g101
g56
g111
g57
tp201
I1
s(g44
g74
g46
tp202
I1
s(S'dcis'
p203
tp204
I5550
s(g87
g89
tp205
I1
s(g55
g101
g111
g58
tp206
I2
s(S'one'
p207
tp208
I61
s(S'p53'
p209
tp210
I1177
s(S'diagnosis'
p211
tp212
I1
s(g198
tp213
I1383
s(S'dcis'
p214
S'tumor'
p215
tp216
I119
s(g56
tp217
I1
s(S'bank'
p218
S'tumor'
p219
tp220
I581
s(S'1'
p221
g186
g187
tp222
I1
s(g19
g14
g82
tp223
I1
s(g178
g28
g29
tp224
I34
s(g145
g65
g99
tp225
I1
s(S'dcis'
p226
S'number'
p227
S'slides'
p228
tp229
I36
s(g19
S'excision'
p230
g14
tp231
I1
s(g122
tp232
I2
s(g86
g87
g88
g89
g90
g154
tp233
I1
s(g9
g3
g4
tp234
I1
s(S'breast'
p235
S'invasive'
p236
tp237
I3
s(g32
g33
tp238
I34
s(g101
g56
g111
g58
tp239
I1
s(g24
g25
tp240
I12
s(g203
S'measurement'
p241
tp242
I1323
s(g55
g101
g56
g111
g57
g58
tp243
I1
s(g9
g2
g4
tp244
I1
s(g207
S'present'
p245
tp246
I61
s(S'types'
p247
tp248
I1
s(g55
g101
g56
g111
tp249
I1
s(g145
g65
g67
g99
g146
tp250
I1
s(g38
g41
tp251
I2
s(g127
tp252
I4350
s(g89
g90
tp253
I1
s(S'wbl'
p254
tp255
I1
s(S'studies'
p256
tp257
I6
s(g37
g38
g41
tp258
I1
s(g87
g88
g89
g90
g154
tp259
I1
s(g19
g230
g13
g14
tp260
I1
s(g8
g9
g2
g4
tp261
I1
s(g88
g89
g154
tp262
I1
s(S'breast'
p263
S'lumpectomy'
p264
tp265
I2
s(S'largest'
p266
S'size'
p267
tp268
I1242
s(g163
g72
tp269
I2444
s(g145
g66
g67
tp270
I1
s(g52
g174
tp271
I12
s(g49
tp272
I1377
s(S'grade'
p273
S'nuclear'
p274
tp275
I40
s(g19
g230
g82
tp276
I1
s(g43
g44
tp277
I2
s(g101
g56
g58
tp278
I1
s(g65
g146
tp279
I1
s(S'lymph'
p280
S'nodes'
p281
tp282
I5303
s(g8
g1
g9
g2
g3
g4
tp283
I1
s(g16
g17
g174
g53
tp284
I1
s(g44
g45
g46
tp285
I1
s(g198
S'total'
p286
g199
tp287
I1382
s(g55
g101
g56
g111
g58
tp288
I1
s(g19
g81
g230
g14
tp289
I1
s(g65
g66
g99
tp290
I1
s(g55
g56
g111
g57
tp291
I1
s(g19
g13
g82
tp292
I1
s(g37
g62
g38
g41
g63
tp293
I1
s(g286
tp294
I1382
s(S'marker'
p295
g256
tp296
I6
s(g43
g44
g74
g46
tp297
I1
s(g191
g121
g122
g131
tp298
I2
s(g44
g45
g74
g46
tp299
I1
s(g87
g89
g154
tp300
I1
s(S'number'
p301
S'positive'
p302
S'versus'
p303
tp304
I1378
s(S'tnm'
p305
tp306
I1475
s(g56
g57
tp307
I1
s(g62
g38
tp308
I1
s(g86
g90
g154
tp309
I1
s(g62
g39
tp310
I1
s(g1
g3
g4
tp311
I2
s(g19
g230
g13
g82
tp312
I1
s(g211
g11
tp313
I1
s(g158
S'lymphatic'
p314
g159
tp315
I62
s(g221
g187
tp316
I1
s(g37
g62
g38
g39
tp317
I1
s(g266
tp318
I1276
s(g138
S'right'
p319
tp320
I1
s(g9
g2
tp321
I1
s(g62
g38
g41
g63
g39
tp322
I1
s(g38
g41
g39
tp323
I1
s(g44
tp324
I2
s(S'necrosis'
p325
tp326
I40
s(g8
g9
tp327
I1
s(g19
g81
g82
tp328
I1
s(S'extensive'
p329
tp330
I2743
s(g65
g99
tp331
I1
s(g170
S'specimen'
p332
tp333
I1475
s(g163
g71
g72
tp334
I2444
s(g58
tp335
I2
s(g280
tp336
I5305
s(g8
g1
g9
tp337
I1
s(g8
g1
g9
g4
tp338
I1
s(g38
g63
tp339
I1
s(g16
g174
g53
tp340
I6
s(g19
g81
g230
g82
tp341
I1
s(S'benign'
p342
g92
g94
tp343
I1
s(S'extension'
p344
tp345
I1240
s(g342
g92
g93
g94
tp346
I1
s(g191
g122
g131
g123
tp347
I1
s(g207
g245
S'slide'
p348
tp349
I61
s(S'1'
p350
S'clock'
p351
tp352
I1
s(g161
g189
tp353
I7355
s(g52
g16
g53
tp354
I6
s(g86
g87
g88
tp355
I2
s(g17
tp356
I2
s(S'anterior'
p357
S'margin'
p358
S'right'
p359
tp360
I1
s(S'distance'
p361
S'margin'
p362
tp363
I1458
s(g89
g154
tp364
I1
s(g143
S'tumor'
p365
tp366
I1
s(g3
g4
tp367
I2
s(g145
g66
g67
g99
g146
tp368
I1
s(g41
g39
tp369
I1
s(g37
g62
g38
g63
g39
tp370
I1
s(g8
g2
g3
g4
tp371
I1
s(g56
g111
g57
g58
tp372
I1
s(g301
g302
tp373
I1379
s(g8
g1
g4
tp374
I2
s(g63
g39
tp375
I1
s(g295
tp376
I6
s(S'breast'
p377
S'excision'
p378
g149
g150
g151
tp379
I1
s(g145
g65
g66
g99
g146
tp380
I1
s(g8
g1
g2
g3
g4
tp381
I1
s(g295
g256
S'tumor'
p382
tp383
I6
s(g263
g138
tp384
I1
s(g105
S'excision'
p385
g106
tp386
I1
s(g191
g121
g122
g123
tp387
I1
s(S'cadherin'
p388
tp389
I1
s(g60
g32
g33
tp390
I34
s(g301
g303
tp391
I1378
s(g41
g63
g39
tp392
I1
s(g166
S'excision'
p393
g167
g168
tp394
I1
s(g62
g38
g63
g39
tp395
I1
s(g101
g56
g111
tp396
I1
s(S'alh'
p397
S'lcis'
p398
tp399
I1
s(g96
S'lesion'
p400
tp401
I241
s(g19
g13
tp402
I1
s(S'histologic'
p403
g247
tp404
I1
s(g41
g63
tp405
I1
s(g393
S'margin'
p406
g167
g168
tp407
I1
s(g86
g88
tp408
I2
s(g37
g38
g41
g63
g39
tp409
I1
s(S'fish'
p410
S'her2'
p411
tp412
I1
s(g43
g44
g45
g74
g46
tp413
I1
s(S'positiv'
p414
tp415
I1
s(S'cancer'
p416
tp417
I1429
s(g52
g16
g17
tp418
I2
s(g86
g88
g90
g154
tp419
I1
s(g87
g88
g89
g154
tp420
I1
s(g101
g111
g58
tp421
I2
s(g263
g138
g319
tp422
I1
s(g86
g87
g88
g90
g154
tp423
I1
s(g17
g174
g53
tp424
I1
s(g145
g65
g66
g67
tp425
I1
s(S'lateral'
p426
S'left'
p427
S'margin'
p428
tp429
I1
s(S'left'
p430
S'lumpectomy'
p431
tp432
I1
s(g55
g56
g111
tp433
I1
s(g37
g41
g63
g39
tp434
I1
s(g55
g56
g111
g57
g58
tp435
I1
s(g8
g1
g9
g2
g3
tp436
I1
s(g17
g174
tp437
I2
s(g62
g41
g63
tp438
I1
s(S'breast'
p439
S'excision'
p440
g426
g427
tp441
I1
s(S'location'
p442
tp443
I45
s(g122
g123
tp444
I1
s(g2
g4
tp445
I1
s(S'axillary'
p446
g77
g79
tp447
I4294
s(g400
tp448
I241
s(g55
g101
g56
g57
tp449
I1
s(g8
g1
g9
g3
tp450
I1
s(g37
g39
tp451
I1
s(g55
g56
g58
tp452
I1
s(g55
g101
g111
g57
g58
tp453
I1
s(g1
g9
g2
g4
tp454
I1
s(g17
g53
tp455
I1
s(g105
g106
tp456
I1
s(g24
S'markers'
p457
g25
g26
tp458
I12
s(g65
g66
g99
g146
tp459
I1
s(g52
g16
tp460
I12
s(g101
g56
g111
g57
g58
tp461
I1
s(g25
g26
tp462
I12
s(S'specimen'
p463
S'submitted'
p464
tp465
I1477
s(g145
g66
g99
g146
tp466
I1
s(g19
g81
g230
tp467
I1
s(g8
g9
g2
tp468
I1
s(g87
g88
g89
g90
tp469
I1
s(g125
S'neoplasia'
p470
tp471
I16
s(g38
g41
g63
tp472
I1
s(g55
g56
tp473
I1
s(S'sr'
p474
tp475
I1
s(g65
g67
tp476
I1
s(g86
g89
g90
g154
tp477
I1
s(g377
g149
g151
tp478
I1
s(S'calcifications'
p479
tp480
I4245
s(g8
g4
tp481
I2
s(g1
g9
g2
g3
tp482
I1
s(g178
tp483
I34
s(g145
g65
g67
g146
tp484
I1
s(g274
tp485
I40
s(g121
g122
g131
g123
tp486
I1
s(S'90'
p487
tp488
I1
s(g161
S'tumor'
p489
tp490
I7355
s(g37
g62
g41
g63
tp491
I1
sS'*****datapoint_count*****'
p492
I36614
s(g37
g38
g63
g39
tp493
I1
s(g145
g65
g66
g67
g146
tp494
I1
s(g109
tp495
I40
s(g56
g111
g58
tp496
I1
s(g19
g13
g14
g82
tp497
I1
s(S'her2'
p498
tp499
I1200
s(g19
g81
g14
g82
tp500
I1
s(g342
g94
tp501
I1
s(g8
g9
g3
tp502
I1
s(g55
g56
g57
tp503
I1
s(g245
tp504
I61
s(g227
g228
tp505
I72
s(g301
S'total'
p506
tp507
I1378
s(g19
g14
tp508
I1
s(S'a1'
p509
tp510
I1
s(g145
g146
tp511
I1
s(g397
tp512
I1
s(g86
g88
g89
g154
tp513
I1
s(g55
g111
g57
g58
tp514
I1
s(g86
g87
g88
g154
tp515
I2
s(S'closest'
p516
S'margin'
p517
tp518
I1
s(g55
g101
g56
g111
g57
tp519
I1
s(g230
g13
g14
tp520
I1
s(g52
g16
g174
g53
tp521
I6
s(g351
tp522
I2
s(g377
g149
g150
g151
tp523
I1
s(g149
g151
tp524
I1
s(g127
g129
tp525
I36
s(g357
S'breast'
p526
g358
g359
tp527
I1
s(g101
g56
g57
tp528
I1
s(g37
g63
tp529
I1
s(g138
g264
tp530
I1
s(S'staging'
p531
g305
tp532
I1475
s(g86
g88
g154
tp533
I2
s(g86
g154
tp534
I2
s(g281
tp535
I5303
s(g378
g149
g151
tp536
I1
s(S'axillary'
p537
g280
g281
tp538
I5283
s(g410
tp539
I1
s(g37
g41
g39
tp540
I1
s(g207
g348
tp541
I61
s(g400
g97
tp542
I241
s(S'ki67'
p543
tp544
I1
s(g38
g41
g63
g39
tp545
I1
s(g189
g489
tp546
I7474
s(g191
g121
g122
g131
g123
tp547
I1
s(g86
g87
tp548
I2
s(g4
tp549
I2
s(g16
g17
g53
tp550
I1
s(g166
g393
g406
g167
g168
tp551
I1
s(g81
g13
g14
g82
tp552
I1
s(g43
g44
g45
g74
tp553
I2
s(S'dcis'
p554
S'invasive'
p555
tp556
I1
s(g65
g99
g146
tp557
I1
s(g446
g77
g78
g79
tp558
I4294
s(g96
tp559
I241
s(g361
tp560
I1458
s(g295
g382
tp561
I6
s(g24
g457
g25
tp562
I12
s(g81
g13
g14
tp563
I1
s(g111
g58
tp564
I2
s(g19
g81
g230
g13
g14
g82
tp565
I1
s(g52
g16
g174
tp566
I12
s(g65
g67
g99
g146
tp567
I1
s(g301
tp568
I1451
s(g52
g17
g174
g53
tp569
I1
s(g37
g62
g38
g41
tp570
I1
s(g537
g281
tp571
I5283
s(g145
g65
g66
tp572
I1
s(g53
tp573
I8
s(g62
g38
g63
tp574
I1
s(g174
g53
tp575
I6
s(g191
g122
tp576
I2
s(g37
g62
g39
tp577
I1
s(g230
g13
g14
g82
tp578
I1
s(g62
g38
g41
g63
tp579
I1
s(g8
g9
g3
g4
tp580
I1
s(g60
g32
tp581
I34
s(S'dcis'
p582
g329
tp583
I2743
s(S'excision'
p584
g35
tp585
I5645
s(g52
g16
g17
g174
g53
tp586
I1
s(g55
g56
g111
g58
tp587
I1
s(S'1'
p588
S'67'
p589
S'tumor'
p590
tp591
I1
s(g145
g99
g146
tp592
I1
s(g301
g506
g303
tp593
I1378
s(g266
S'metastasis'
p594
g267
tp595
I1242
s(g65
g66
g146
tp596
I1
s(g357
g526
S'excision'
p597
g358
g359
tp598
I1
s(S'component'
p599
g582
tp600
I2743
s(g104
g105
g106
S'margin'
p601
tp602
I1
s(S'breast'
p603
g430
g431
tp604
I1
s(S'2'
p605
g6
tp606
I2
s(g226
g227
tp607
I36
s(g196
tp608
I2953
s(g52
g16
g17
g53
tp609
I1
s(g19
g230
g13
tp610
I1
s(g37
g62
g41
g63
g39
tp611
I1
s(g145
g67
g99
tp612
I1
s(g8
g1
g9
g2
g4
tp613
I1
s(g31
g60
g33
tp614
I34
s(g426
g427
tp615
I1
s(g105
g106
g601
tp616
I1
s(S'pr'
p617
tp618
I1244
s(g446
g77
tp619
I4294
s(g166
g406
g167
g168
tp620
I1
s(g89
g90
g154
tp621
I1
s(g531
tp622
I1475
s(g226
g228
tp623
I36
s(g104
g105
g385
g106
g601
tp624
I1
s(g56
g58
tp625
I1
s(g357
g359
tp626
I1
s(g38
g39
tp627
I1
s(g86
g88
g89
g90
g154
tp628
I1
s(g149
g150
tp629
I6
s(g19
g230
g14
g82
tp630
I1
s(g178
g28
tp631
I34
s(g44
g45
g74
tp632
I2
s(g145
g66
g67
g146
tp633
I1
s(g145
g65
g66
g67
g99
tp634
I1
s(g439
g426
g427
g428
tp635
I1
s(g22
tp636
I1
s(g55
g111
g58
tp637
I2
s(g37
g62
g41
tp638
I1
s(g19
g230
tp639
I1
s(g1
g4
tp640
I2
s(g191
g121
g122
tp641
I2
s(g21
tp642
I1
s(g2
g3
g4
tp643
I1
s(g377
g149
tp644
I7
s(g101
g56
tp645
I1
s(g264
tp646
I2
s(g235
S'cancer'
p647
tp648
I3
s(g88
g89
g90
tp649
I1
s(g62
g41
g39
tp650
I1
s(g37
g38
g63
tp651
I1
s(g145
g66
tp652
I1
s(g55
g101
g56
g57
g58
tp653
I1
s(g62
g38
g41
g39
tp654
I1
s(g357
g597
g358
g359
tp655
I1
s(g145
g66
g67
g99
tp656
I1
s(g588
g589
tp657
I3
s(g406
g167
g168
tp658
I1
s(g19
g230
g13
g14
g82
tp659
I1
s(g1
g9
g2
tp660
I1
s(g470
tp661
I16
s(g301
g302
g506
tp662
I1378
s(g92
g93
tp663
I1
s(g9
g2
g3
g4
tp664
I1
s(g1
g2
g4
tp665
I1
s(g62
g38
g39
tp666
I1
s(S'invasive'
p667
tp668
I1429
s(g594
g267
tp669
I1242
s(g145
g66
g146
tp670
I1
s(g38
g63
g39
tp671
I1
s(g479
g442
tp672
I45
s(S'67'
p673
S'high'
p674
tp675
I5
s(g605
tp676
I2
s(g440
g426
g427
g428
tp677
I1
s(S'67'
p678
S'p53'
p679
tp680
I1
s(g62
g63
g39
tp681
I1
s(g87
g89
g90
tp682
I1
s(g86
g87
g90
g154
tp683
I1
s(g378
g149
g150
g151
tp684
I1
s(g86
g87
g89
g154
tp685
I1
s(S'histologic'
p686
S'type'
p687
tp688
I1428
s(g145
g65
g67
g99
tp689
I1
s(g266
g594
tp690
I1242
s(g145
g99
tp691
I1
s(g464
tp692
I1477
s(g86
g89
g154
tp693
I1
s(g86
g87
g89
g90
tp694
I1
s(g145
g65
g66
g67
g99
g146
tp695
I1
s(g31
g32
tp696
I34
s(g86
g88
g89
tp697
I1
s(g88
g89
tp698
I1
s(g142
g365
tp699
I1
s(g55
g101
g58
tp700
I2
s(g19
g81
g230
g13
g82
tp701
I1
s(g127
g128
tp702
I36
s(g167
g168
tp703
I1
s(g9
g4
tp704
I1
s(g31
g60
tp705
I34
s(g145
g65
g67
tp706
I1
s(g158
g314
tp707
I62
s(g342
g92
tp708
I1
s(g357
g526
g597
g359
tp709
I1
s(g93
g94
tp710
I1
s(g8
g3
g4
tp711
I2
s(g446
g77
g78
tp712
I4294
s(S'67'
p713
S'low'
p714
tp715
I1
s(g191
g122
g131
tp716
I2
s(g96
g400
g97
tp717
I241
s(g416
g667
tp718
I1429
s(g145
g65
g66
g99
tp719
I1
s(S'lcis'
p720
tp721
I1418
s(g332
tp722
I2952
s(g8
g1
g2
g4
tp723
I1
s(g599
tp724
I2743
s(g37
g62
g38
tp725
I1
s(S'locations'
p726
tp727
I1340
s(g377
g378
g149
g151
tp728
I1
s(g158
tp729
I1439
s(g439
g440
g426
g427
g428
tp730
I1
s(g714
tp731
I1
s(g55
g101
g56
g58
tp732
I1
s(g589
g590
tp733
I1
s(g378
g149
g150
tp734
I6
s(g43
g44
g46
tp735
I1
s(g55
g57
g58
tp736
I1
s(g122
g131
tp737
I2
s(g44
g45
tp738
I2
s(g86
g87
g90
tp739
I1
s(g263
g264
g319
tp740
I1
s(g516
tp741
I1
s(g19
g81
g230
g13
tp742
I1
s(g584
tp743
I5658
s(g263
g138
g264
tp744
I1
s(g19
tp745
I1
s(g57
g58
tp746
I1
s(g344
S'extranodal'
p747
tp748
I1240
s(g145
g67
tp749
I1
s(g588
tp750
I4
s(g9
tp751
I1
s(g121
g122
tp752
I2
s(g686
tp753
I1429
s(g377
g149
g150
tp754
I6
s(g62
g41
tp755
I1
s(S'67'
p756
S'left'
p757
tp758
I1
s(g439
g426
g427
tp759
I1
s(g37
g63
g39
tp760
I1
s(g9
g2
g3
tp761
I1
s(g52
g174
g53
tp762
I6
s(g228
tp763
I72
s(g62
g38
g41
tp764
I1
s(g145
g67
g146
tp765
I1
s(g43
g44
g45
tp766
I2
s(g214
S'markers'
p767
g215
tp768
I119
s(g105
g385
g106
g601
tp769
I1
s(g92
g94
tp770
I1
s(g70
g72
tp771
I2444
s(g121
g122
g131
tp772
I2
s(g198
g286
tp773
I1382
s(g8
g9
g4
tp774
I1
s(g108
tp775
I40
s(g19
g81
g13
g14
tp776
I1
s(g161
g189
g489
tp777
I7355
s(g37
g41
tp778
I1
s(g314
g159
tp779
I62
s(g301
g302
g506
g303
tp780
I1378
s(g86
g87
g88
g89
tp781
I1
s(g19
g81
g230
g13
g14
tp782
I1
s(g286
g199
tp783
I1382
s(g342
g93
tp784
I1
s(g8
g2
g4
tp785
I1
s(g687
tp786
I1428
s(g19
g81
tp787
I1
s(g1
g9
tp788
I1
s(g674
tp789
I5
s(g55
g101
g56
tp790
I1
s(g1
g9
g3
g4
tp791
I1
s(g81
g230
g13
g14
tp792
I1
s(g19
g81
g14
tp793
I1
s(g235
g647
g236
tp794
I3
s(g56
g111
g57
tp795
I1
s(g19
g81
g13
g82
tp796
I1
s(g52
g17
g174
tp797
I2
s(g81
g230
g13
g14
g82
tp798
I1
s(g37
g62
g41
g39
tp799
I1
s(S'calcifications'
p800
g726
tp801
I1340
s(g138
g264
g319
tp802
I1
s(g19
g81
g230
g14
g82
tp803
I1
s(g214
g767
tp804
I119
s(g87
g88
g89
tp805
I1
s(g163
g70
g72
tp806
I2444
s(g218
tp807
I583
s(g377
g378
g149
g150
tp808
I6
s(g1
g9
g2
g3
g4
tp809
I1
s(g588
g590
tp810
I1
s(g87
g89
g90
g154
tp811
I1
s(g362
tp812
I1471
s(g55
g58
tp813
I2
s(g377
g378
g149
tp814
I6
s(g747
tp815
I1240
s(g440
g426
g427
tp816
I1
s(g86
g89
tp817
I1
s(g203
g241
g184
tp818
I1323
s(g39
tp819
I1
s(g8
g9
g2
g3
g4
tp820
I1
s(S'cancer'
p821
g554
g555
tp822
I1
s(g241
tp823
I1323
s(g142
g143
g365
tp824
I1
s(g159
tp825
I62
s(g145
g65
g146
tp826
I1
s(g77
g78
tp827
I4314
s(g65
g66
g67
g99
g146
tp828
I1
s(g457
g25
g26
tp829
I12
s(g378
g149
tp830
I6
s(g599
g329
tp831
I2743
s(g393
g167
g168
tp832
I1
s(g88
g89
g90
g154
tp833
I1
s(g149
tp834
I8
s(g52
g17
tp835
I2
s(g342
g93
g94
tp836
I1
s(g29
tp837
I34
s(g821
g554
tp838
I1
s(g357
g526
g359
tp839
I1
s(g56
g111
tp840
I1
s(g86
g87
g89
tp841
I1
s(g16
g17
g174
tp842
I2
s(g60
tp843
I34
s(g86
tp844
I2
s(g37
g38
g41
g39
tp845
I1
s(g71
g72
tp846
I2444
s(g314
tp847
I62
s(g8
g1
g3
g4
tp848
I2
s(g264
g319
tp849
I1
s(g245
g348
tp850
I61
s(g342
g92
g93
tp851
I1
s(S'67'
p852
g509
tp853
I1
s(g342
tp854
I1
s(g1
g9
g4
tp855
I1
s(g457
g25
tp856
I12
s(g348
tp857
I61
s(g187
tp858
I1
s(g62
g41
g63
g39
tp859
I1
s(g357
g597
g359
tp860
I1
s(g101
g56
g57
g58
tp861
I1
s(g86
g87
g154
tp862
I2
s(g487
g414
tp863
I1
s(g37
g41
g63
tp864
I1
s(g77
g79
tp865
I4314
s(g65
g66
tp866
I1
s(g52
g16
g17
g174
tp867
I2
s(g52
g53
tp868
I7
s(g256
g382
tp869
I6
s(g31
g60
g32
tp870
I34
s(g241
g184
tp871
I1323
s(g65
g66
g67
g99
tp872
I1
s(g86
g89
g90
tp873
I1
s(g203
g184
tp874
I1323
s(g145
g67
g99
g146
tp875
I1
s(S'grade'
p876
tp877
I1469
s(g537
tp878
I5284
s(g86
g88
g90
tp879
I1
s(g37
g38
g41
g63
tp880
I1
s(g86
g88
g89
g90
tp881
I1
s(g537
g280
tp882
I5284
s(g594
tp883
I1242
s(g263
g138
g264
g319
tp884
I1
s(g199
tp885
I1382
s(g55
g101
g57
g58
tp886
I1
s(g65
g67
g146
tp887
I1
s(g72
tp888
I2444
s(g599
g582
g329
tp889
I2743
s(g104
g105
g385
g106
tp890
I1
s(g86
g87
g89
g90
g154
tp891
I1
s(g145
g66
g99
tp892
I1
s(g142
tp893
I1
s(g44
g46
tp894
I1
s(g31
g33
tp895
I34
s(g31
g60
g32
g33
tp896
I34
s.