(dp1
(S'extent'
p2
S'lesion'
p3
S'size'
p4
tp5
I7
s(S'cancer'
p6
S'invasive'
p7
tp8
I46
s(S'neu'
p9
tp10
I2
s(S'final'
p11
tp12
I1
s(S'lcis'
tp13
I44
s(S'specimen'
p14
tp15
I98
s(S'diagnosis'
p16
g11
tp17
I1
s(S'component'
p18
tp19
I92
s(S'previously'
p20
S'reported'
p21
tp22
I1
s(S'invasion'
p23
S'lymphatic'
p24
S'vascular'
p25
tp26
I47
s(S'locations'
p27
tp28
I41
s(S'one'
p29
S'present'
p30
S'slide'
p31
tp32
I2
s(g23
tp33
I47
s(S'dcis'
p34
S'overall'
p35
S'size'
p36
tp37
I1
s(S'margins'
p38
tp39
I186
s(S'largest'
p40
tp41
I47
s(S'dcis'
p42
S'proportion'
p43
tp44
I45
s(S'p53'
tp45
I41
s(S'necrosis'
tp46
I1
s(S'staging'
p47
S'tnm'
p48
tp49
I48
s(S'dcis'
p50
S'extensive'
p51
S'intraductal'
p52
tp53
I83
s(S'extensive'
p54
tp55
I92
s(S'excision'
p56
tp57
I186
s(S'dimensions'
p58
g14
tp59
I49
s(S'component'
p60
g51
g52
tp61
I83
s(S'estimate'
p62
tp63
I1
s(S'lymph'
p64
tp65
I185
s(S'extension'
p66
S'extranodal'
p67
tp68
I46
s(S'axillary'
p69
g64
S'nodes'
p70
tp71
I185
s(S'measurement'
p72
g43
tp73
I45
s(g66
tp74
I46
s(g29
g31
tp75
I2
s(S'histologic'
p76
tp77
I46
s(g2
g4
tp78
I7
s(S'breast'
p79
S'markers'
p80
tp81
I242
s(S'architectural'
p82
S'patterns'
p83
tp84
I1
s(S'slides'
p85
tp86
I2
s(S'distance'
p87
S'margin'
p88
tp89
I47
s(g42
tp90
I187
s(S'dcis'
p91
S'markers'
p92
S'tumor'
p93
tp94
I3
s(S'lobular'
p95
tp96
I3
s(S'examined'
p97
S'number'
p98
S'slides'
p99
tp100
I1
s(g50
g52
tp101
I83
s(g67
tp102
I46
s(g82
tp103
I1
s(g87
tp104
I47
s(g79
g80
S'tumor'
p105
tp106
I242
s(g79
tp107
I242
s(g24
g25
tp108
I47
s(S'tumor'
p109
tp110
I340
s(g95
S'neoplasia'
p111
tp112
I3
s(g35
tp113
I1
s(S'number'
p114
S'positive'
p115
tp116
I42
s(g114
tp117
I44
s(g69
g70
tp118
I185
s(S'total'
p119
S'versus'
p120
tp121
I46
s(S'largest'
p122
S'single'
p123
tp124
I1
s(g62
g35
g36
tp125
I1
s(g62
g35
tp126
I1
s(g114
S'versus'
p127
tp128
I42
s(g23
g25
tp129
I47
s(S'dcis'
p130
g54
tp131
I92
s(g56
g38
tp132
I186
s(g60
g50
g51
g52
tp133
I83
s(S'calcifications'
g27
tp134
I41
s(g2
g3
tp135
I7
s(g58
tp136
I49
s(g114
S'total'
p137
g127
tp138
I42
s(g40
S'metastasis'
p139
S'size'
p140
tp141
I46
s(g18
g130
tp142
I92
s(g60
g50
g52
tp143
I83
s(S'2'
g9
tp144
I2
s(S'dcis'
p145
S'number'
p146
tp147
I1
s(S'size'
p148
tp149
I102
s(g97
g99
tp150
I1
s(g3
g4
tp151
I7
s(g6
tp152
I46
s(g64
g70
tp153
I185
s(g43
tp154
I45
s(g80
tp155
I245
s(S'pr'
tp156
I42
s(g88
tp157
I47
s(S'67'
tp158
I41
s(g97
g98
tp159
I1
s(g148
g109
tp160
I48
s(g111
tp161
I3
s(g47
tp162
I48
s(g145
g85
tp163
I1
s(S'positive'
p164
g119
tp165
I46
s(g42
g72
g43
tp166
I45
s(g2
tp167
I7
s(g29
tp168
I2
s(g62
g36
tp169
I1
s(S'location'
p170
tp171
I5
s(g16
tp172
I1
s(S'diameter'
p173
g122
tp174
I1
s(g25
tp175
I47
s(g164
tp176
I46
s(g3
tp177
I7
s(g91
g93
tp178
I3
s(S'bank'
p179
S'tumor'
tp180
I47
s(g21
tp181
I1
s(g123
tp182
I1
s(g173
g122
g123
tp183
I1
s(g145
g146
g85
tp184
I1
s(g18
g54
tp185
I92
s(S'grade'
tp186
I47
s(g35
g36
tp187
I1
s(g42
g72
tp188
I45
s(g80
g105
tp189
I245
s(g51
g52
tp190
I83
s(g29
g30
tp191
I2
s(g24
tp192
I47
s(S'specimen'
S'submitted'
p193
tp194
I49
s(g30
g31
tp195
I2
s(g97
tp196
I1
s(S'wbl'
tp197
I1
s(g164
g120
tp198
I46
s(g114
g115
g137
tp199
I42
s(g70
tp200
I185
s(g72
tp201
I45
s(g7
tp202
I46
s(g179
tp203
I47
s(g139
g140
tp204
I46
s(g34
g62
g36
tp205
I1
s(S'calcifications'
p206
g170
tp207
I5
s(g31
tp208
I2
s(S'2'
tp209
I2
s(g206
tp210
I140
s(g173
g123
tp211
I1
s(g120
tp212
I46
s(g40
g140
tp213
I46
s(g173
tp214
I1
s(g60
g52
tp215
I83
s(S'nuclear'
p216
tp217
I1
s(S'grade'
g216
tp218
I1
s(g91
g92
tp219
I3
s(g76
S'type'
p220
tp221
I46
s(g34
g62
g35
tp222
I1
s(g79
g105
tp223
I242
s(g40
g139
tp224
I46
s(g18
g130
g54
tp225
I92
s(g193
tp226
I49
sS'*****datapoint_count*****'
p227
I1250
s(g20
tp228
I1
s(g114
g115
g137
g127
tp229
I42
s(g220
tp230
I46
s(g69
tp231
I185
s(g34
g35
tp232
I1
s(g69
g64
tp233
I185
s(g164
g119
g120
tp234
I46
s(g83
tp235
I1
s(g139
tp236
I46
sS'*****note_count*****'
p237
I49
s(S'her2'
tp238
I39
s(g34
g62
tp239
I1
s(g52
tp240
I83
s(g119
tp241
I46
s(g23
g24
tp242
I47
s(g30
tp243
I2
s(g146
g85
tp244
I2
s(g114
g137
tp245
I42
s(g114
g115
g127
tp246
I42
s(g34
g36
tp247
I1
s(g48
tp248
I48
s(g34
g62
g35
g36
tp249
I1
s.