(dp0
(S'excision'
p1
S'left'
p2
S'margin'
p3
S'medial'
p4
tp5
I1
s(S'neu'
p6
tp7
I7
s(S'cis'
p8
S'high'
p9
S'mammary'
p10
S'proportion'
p11
tp12
I1
s(S'grade'
p13
S'measurement'
p14
g11
tp15
I1
s(S'breast'
p16
g1
S'g'
p17
g2
tp18
I1
s(S'final'
p19
tp20
I1
s(g8
g13
g9
g10
g11
tp21
I1
s(S'inferior'
p22
S'left'
p23
tp24
I1
s(S'excision'
p25
S'lateral'
p26
tp27
I2
s(S'b'
p28
g22
g23
tp29
I1
s(S'previously'
p30
S'reported'
p31
tp32
I1
s(S'breast'
p33
S'resulted'
p34
S'tumor'
p35
tp36
I12
s(g13
g9
g14
tp37
I1
s(g8
g9
g11
tp38
I1
s(S'largest'
p39
S'single'
p40
tp41
I38
s(S'dcis'
p42
S'overall'
p43
S'size'
p44
tp45
I37
s(S'margins'
p46
tp47
I7579
s(S'axillary'
p48
S'lymph'
p49
S'sentinel'
p50
tp51
I1
s(S'node'
p52
tp53
I2
s(S'breast'
p54
S'deep'
p55
S'excision'
p56
S'right'
p57
tp58
I1
s(S'invasion'
p59
S'lymphovascular'
p60
tp61
I1814
s(g8
g10
g14
tp62
I1
s(S'breast'
p63
g26
S'right'
p64
tp65
I1
s(S'breast'
p66
S'k'
p67
S'right'
p68
S'superior'
p69
tp70
I1
s(S'estimate'
p71
g44
tp72
I37
s(g48
S'excision'
p73
S'right'
p74
g50
tp75
I1
s(g8
g9
g10
tp76
I1
s(S'node'
p77
S'number'
p78
S'positive'
p79
tp80
I1
s(g8
g13
g10
g11
tp81
I1
s(g48
g73
g49
g74
tp82
I1
s(S'dcis'
p83
S'extensive'
p84
S'intraductal'
p85
tp86
I3148
s(g55
S'margin'
p87
tp88
I2
s(g17
g3
tp89
I1
s(S'examined'
p90
S'lymph'
p91
S'nodes'
p92
tp93
I5669
s(g28
S'breast'
p94
g22
g23
S'margin'
p95
tp96
I1
s(S'note'
p97
tp98
I1
s(S'anterior'
p99
S'breast'
p100
S'excision'
p101
S'f'
p102
S'left'
p103
tp104
I1
s(S'breast'
p105
S'dcis'
p106
S'tissue'
p107
tp108
I1
s(S'extent'
p109
S'size'
p110
tp111
I265
s(g77
g79
S'total'
p112
tp113
I1
s(S'excision'
p114
g69
tp115
I2
s(g48
g73
g49
g52
g50
tp116
I1
s(S'breast'
p117
S'deep'
p118
S'left'
p119
tp120
I1
s(g10
tp121
I1
s(S'margin'
p122
g68
g69
tp123
I1
s(g114
g122
g68
g69
tp124
I1
s(g16
g1
g17
g3
g4
tp125
I1
s(g48
g73
g49
g52
g74
g50
tp126
I1
s(S'bank'
p127
S'tissue'
p128
tp129
I2
s(g1
g17
g3
tp130
I1
s(g25
g64
tp131
I7
s(S'excision'
p132
S'inferior'
p133
S'right'
p134
tp135
I1
s(S'lobular'
p136
tp137
I19
s(S'examined'
p138
S'number'
p139
S'slides'
p140
tp141
I40
s(g133
S'margin'
p142
g134
tp143
I1
s(g114
g68
g69
tp144
I1
s(g102
tp145
I1
s(g22
g23
g95
tp146
I1
s(S'tumor'
p147
tp148
I12152
s(S'h'
p149
tp150
I1
s(g99
g103
tp151
I1
s(g43
tp152
I37
s(S'12'
p153
S'clock'
p154
tp155
I1
s(S'lymph'
p156
g77
g78
S'versus'
p157
tp158
I1
s(g77
g78
g79
g157
tp159
I1
s(S'left'
p160
S'margin'
p161
S'superior'
p162
tp163
I1
s(g73
g49
g74
g50
tp164
I1
s(g156
g77
g112
g157
tp165
I1
s(g99
g100
g101
g102
S'margin'
p166
tp167
I1
s(g48
g73
tp168
I1
s(S'breast'
p169
S'excision'
p170
g160
g162
tp171
I1
s(g34
tp172
I12
s(g9
g11
tp173
I1
s(S'breast'
p174
tp175
I9521
s(S'component'
p176
g83
g84
g85
tp177
I3148
s(g54
g55
g87
tp178
I2
s(S'breast'
p179
S'medial'
p180
S'right'
p181
tp182
I1
s(S'dimensions'
p183
tp184
I1981
s(g28
g95
tp185
I1
s(g99
g100
g101
g103
tp186
I1
s(g25
S'margin'
p187
tp188
I12
s(g128
tp189
I3
s(S'lcis'
p190
S'necrosis'
p191
tp192
I1
s(g8
g13
g9
g10
g14
g11
tp193
I1
s(g28
g94
g22
tp194
I1
s(S'diameter'
p195
g40
tp196
I38
s(S'her2'
p197
S'neu'
p198
tp199
I5
s(g67
g68
g69
tp200
I1
s(S'proportion'
p201
tp202
I1762
s(S'67'
p203
S'focus'
p204
tp205
I1
s(S'markers'
p206
tp207
I9625
s(S'breast'
p208
g133
g134
tp209
I1
s(g48
g73
g74
tp210
I1
s(g13
g14
tp211
I1
s(g13
g11
tp212
I1
s(S'67'
p213
tp214
I1503
s(g9
g10
tp215
I1
s(S'size'
p216
g147
tp217
I1937
s(S'positive'
p218
S'versus'
p219
tp220
I1853
s(g114
g67
g122
g68
tp221
I1
s(g55
g87
g57
tp222
I1
s(S'dcis'
p223
tp224
I7374
s(g100
g102
tp225
I1
s(g66
g114
g122
g69
tp226
I2
s(S'one'
p227
tp228
I66
s(S'p53'
p229
tp230
I1496
s(S'diagnosis'
p231
tp232
I1
s(g218
tp233
I1854
s(g9
g14
g11
tp234
I1
s(g67
tp235
I1
s(S'bank'
p236
S'tumor'
p237
tp238
I582
s(S'1'
p239
g203
g204
tp240
I1
s(g28
g23
g95
tp241
I1
s(g195
g39
g40
tp242
I38
s(g156
g77
g112
tp243
I1
s(S'dcis'
p244
S'number'
p245
S'slides'
p246
tp247
I40
s(g28
S'excision'
p248
g23
tp249
I1
s(g133
tp250
I2
s(g99
g100
g101
g102
g103
g166
tp251
I1
s(g17
g3
g4
tp252
I1
s(S'breast'
p253
S'invasive'
p254
tp255
I8
s(g43
g44
tp256
I37
s(g114
g67
g122
g69
tp257
I1
s(g33
g34
tp258
I12
s(g223
S'measurement'
p259
tp260
I1761
s(g66
g114
g67
g122
g68
g69
tp261
I1
s(g17
g2
g4
tp262
I1
s(g227
S'present'
p263
tp264
I66
s(S'types'
p265
tp266
I1
s(g66
g114
g67
g122
tp267
I1
s(g8
g9
g14
tp268
I1
s(g49
g52
tp269
I2
s(g8
g10
g11
tp270
I1
s(g138
tp271
I5709
s(g102
g103
tp272
I1
s(g8
g13
g10
tp273
I1
s(S'wbl'
p274
tp275
I1
s(S'studies'
p276
tp277
I6
s(g48
g49
g52
tp278
I1
s(g100
g101
g102
g103
g166
tp279
I1
s(g28
g248
g22
g23
tp280
I1
s(g16
g17
g2
g4
tp281
I1
s(g8
g9
g14
g11
tp282
I1
s(g101
g102
g166
tp283
I1
s(S'breast'
p284
S'lumpectomy'
p285
tp286
I2
s(S'largest'
p287
S'size'
p288
tp289
I1649
s(g176
g85
tp290
I3148
s(g156
g78
g79
tp291
I1
s(g63
g187
tp292
I12
s(g60
tp293
I1814
s(S'grade'
p294
S'nuclear'
p295
tp296
I43
s(g28
g248
g95
tp297
I1
s(g54
g55
tp298
I2
s(g114
g67
g69
tp299
I1
s(g77
g157
tp300
I1
s(S'lymph'
p301
S'nodes'
p302
tp303
I7087
s(g16
g1
g17
g2
g3
g4
tp304
I1
s(S'proporti'
p305
tp306
I1
s(g25
g26
g187
g64
tp307
I1
s(g55
g56
g57
tp308
I1
s(g13
g9
g10
g14
g11
tp309
I1
s(g218
S'total'
p310
g219
tp311
I1853
s(g66
g114
g67
g122
g69
tp312
I1
s(g28
g94
g248
g23
tp313
I1
s(g77
g78
g112
tp314
I1
s(g66
g67
g122
g68
tp315
I1
s(g8
g11
tp316
I1
s(g28
g22
g95
tp317
I1
s(g48
g73
g49
g52
g74
tp318
I1
s(g310
tp319
I1853
s(S'marker'
p320
g276
tp321
I6
s(g54
g55
g87
g57
tp322
I1
s(g208
g132
g133
g142
tp323
I2
s(g55
g56
g87
g57
tp324
I1
s(S'measurement'
p325
g305
tp326
I1
s(S'number'
p327
S'positive'
p328
S'versus'
p329
tp330
I1849
s(g8
g13
g11
tp331
I1
s(S'tnm'
p332
tp333
I1981
s(g67
g68
tp334
I1
s(g73
g49
tp335
I1
s(g8
g9
tp336
I1
s(g99
g103
g166
tp337
I1
s(g73
g50
tp338
I1
s(g8
g10
tp339
I1
s(g1
g3
g4
tp340
I2
s(g8
g14
g11
tp341
I1
s(g10
g14
tp342
I1
s(g28
g248
g22
g95
tp343
I1
s(g231
g19
tp344
I1
s(S'invasion'
p345
S'lymphatic'
p346
S'vascular'
p347
tp348
I62
s(g239
g204
tp349
I1
s(S'invasion'
p350
S'lymph'
p351
tp352
I65
s(g48
g73
g49
g50
tp353
I1
s(g287
tp354
I1687
s(g149
S'right'
p355
tp356
I1
s(g17
g2
tp357
I1
s(g73
g49
g52
g74
g50
tp358
I1
s(g49
g52
g50
tp359
I1
s(g49
g52
g74
g50
tp360
I1
s(S'necrosis'
p361
tp362
I44
s(g16
g17
tp363
I1
s(g28
g94
g95
tp364
I1
s(S'extensive'
p365
tp366
I3672
s(g77
g112
tp367
I1
s(g183
S'specimen'
p368
tp369
I1981
s(g176
g84
g85
tp370
I3148
s(g69
tp371
I2
s(g301
tp372
I7154
s(g16
g1
g17
tp373
I1
s(g16
g1
g17
g4
tp374
I1
s(g49
g74
tp375
I1
s(g25
g187
g64
tp376
I6
s(g28
g94
g248
g95
tp377
I1
s(S'benign'
p378
g105
g107
tp379
I1
s(S'extension'
p380
tp381
I1647
s(g378
g105
g106
g107
tp382
I1
s(g208
g133
g142
g134
tp383
I1
s(S'dcis'
p384
g325
g305
tp385
I1
s(S'1'
p386
S'clock'
p387
tp388
I1
s(g174
g206
tp389
I9498
s(S'lcis'
p390
S'measurement'
p391
S'proportion'
p392
tp393
I1
s(g63
g25
g64
tp394
I6
s(g99
g100
g101
tp395
I2
s(g26
tp396
I2
s(S'anterior'
p397
S'margin'
p398
S'right'
p399
tp400
I1
s(S'distance'
p401
S'margin'
p402
tp403
I1953
s(g102
g166
tp404
I1
s(g154
S'tumor'
p405
tp406
I1
s(S'architectural'
p407
S'patterns'
p408
tp409
I43
s(g8
g13
g9
g10
g14
tp410
I1
s(g3
g4
tp411
I2
s(g156
g78
g79
g112
g157
tp412
I1
s(g52
g50
tp413
I1
s(g48
g73
g49
g74
g50
tp414
I1
s(g16
g2
g3
g4
tp415
I1
s(g67
g122
g68
g69
tp416
I1
s(g327
g328
tp417
I1850
s(g66
g67
g122
g68
g69
tp418
I1
s(g74
g50
tp419
I1
s(g320
tp420
I6
s(g169
g170
g160
g161
g162
tp421
I1
s(g156
g77
g78
g112
g157
tp422
I1
s(g16
g1
g2
g3
g4
tp423
I1
s(g8
g13
g9
g14
g11
tp424
I1
s(g320
g276
S'tumor'
p425
tp426
I6
s(g16
g17
g2
g3
tp427
I1
s(g118
S'excision'
p428
g119
tp429
I1
s(g208
g132
g133
g134
tp430
I1
s(S'cadherin'
p431
tp432
I2
s(g71
g43
g44
tp433
I37
s(g327
g329
tp434
I1849
s(g52
g74
g50
tp435
I1
s(g179
S'excision'
p436
g180
g181
tp437
I1
s(g384
g305
tp438
I1
s(g8
g13
g9
g14
tp439
I1
s(g114
g67
g122
tp440
I1
s(S'alh'
p441
S'lcis'
p442
tp443
I1
s(g109
S'lesion'
p444
tp445
I265
s(S'pleomorphic'
p446
tp447
I1
s(S'histologic'
p448
g265
tp449
I1
s(g52
g74
tp450
I1
s(g350
g351
S'vascular'
p451
tp452
I65
s(g436
S'margin'
p453
g180
g181
tp454
I1
s(g99
g101
tp455
I2
s(g48
g49
g52
g74
g50
tp456
I1
s(S'fish'
p457
S'her2'
p458
tp459
I1
s(g54
g55
g56
g87
g57
tp460
I1
s(S'positiv'
p461
tp462
I1
s(S'cancer'
p463
tp464
I1925
s(g63
g25
g26
tp465
I2
s(g99
g101
g103
g166
tp466
I1
s(g100
g101
g102
g166
tp467
I1
s(g114
g122
g69
tp468
I2
s(g284
g149
g355
tp469
I1
s(g99
g100
g101
g103
g166
tp470
I1
s(g26
g187
g64
tp471
I1
s(g156
g77
g78
g79
tp472
I1
s(S'lateral'
p473
S'left'
p474
S'margin'
p475
tp476
I1
s(S'left'
p477
S'lumpectomy'
p478
tp479
I1
s(g66
g67
g122
tp480
I1
s(g48
g52
g74
g50
tp481
I1
s(g16
g1
g4
tp482
I2
s(g16
g1
g17
g2
g3
tp483
I1
s(g26
g187
tp484
I2
s(g73
g52
g74
tp485
I1
s(S'breast'
p486
S'excision'
p487
g473
g474
tp488
I1
s(S'location'
p489
tp490
I49
s(g133
g134
tp491
I1
s(g2
g4
tp492
I1
s(S'axillary'
p493
g90
g92
tp494
I5649
s(g444
tp495
I265
s(g66
g114
g67
g68
tp496
I1
s(g16
g1
g17
g3
tp497
I1
s(g13
g10
tp498
I1
s(S'central'
p499
g190
tp500
I1
s(g48
g50
tp501
I1
s(g66
g67
g69
tp502
I1
s(g66
g114
g122
g68
g69
tp503
I1
s(g1
g17
g2
g4
tp504
I1
s(g26
g64
tp505
I1
s(g118
g119
tp506
I1
s(g351
g451
tp507
I65
s(g33
S'markers'
p508
g34
g35
tp509
I12
s(g77
g78
g112
g157
tp510
I1
s(g63
g25
tp511
I12
s(g114
g67
g122
g68
g69
tp512
I1
s(g34
g35
tp513
I12
s(S'specimen'
p514
S'submitted'
p515
tp516
I1983
s(g156
g78
g112
g157
tp517
I1
s(g28
g94
g248
tp518
I1
s(g16
g17
g2
tp519
I1
s(g100
g101
g102
g103
tp520
I1
s(g136
S'neoplasia'
p521
tp522
I19
s(g49
g52
g74
tp523
I1
s(g66
g67
tp524
I1
s(S'sr'
p525
tp526
I1
s(g77
g79
tp527
I1
s(S'grade'
p528
S'histologic'
p529
tp530
I1
s(g99
g102
g103
g166
tp531
I1
s(g169
g160
g162
tp532
I1
s(S'calcifications'
p533
tp534
I5673
s(g16
g4
tp535
I2
s(g1
g17
g2
g3
tp536
I1
s(g8
g9
g10
g14
g11
tp537
I1
s(g195
tp538
I38
s(g156
g77
g79
g157
tp539
I1
s(g295
tp540
I43
s(g132
g133
g142
g134
tp541
I1
s(S'90'
p542
tp543
I1
s(g174
S'tumor'
p544
tp545
I9498
s(g13
g9
tp546
I1
s(g48
g73
g52
g74
tp547
I1
sS'*****datapoint_count*****'
p548
I48433
s(g48
g49
g74
g50
tp549
I1
s(g156
g77
g78
g79
g157
tp550
I1
s(g408
tp551
I43
s(g67
g122
g69
tp552
I1
s(g28
g22
g23
g95
tp553
I1
s(S'her2'
p554
tp555
I1535
s(g28
g94
g23
g95
tp556
I1
s(g378
g107
tp557
I1
s(g9
g10
g14
g11
tp558
I1
s(g16
g17
g3
tp559
I1
s(g66
g67
g68
tp560
I1
s(g263
tp561
I66
s(g245
g246
tp562
I80
s(g327
S'total'
p563
tp564
I1849
s(g28
g23
tp565
I1
s(S'a1'
p566
tp567
I1
s(g156
g157
tp568
I1
s(g441
tp569
I1
s(g99
g101
g102
g166
tp570
I1
s(g66
g122
g68
g69
tp571
I1
s(g99
g100
g101
g166
tp572
I2
s(S'closest'
p573
S'margin'
p574
tp575
I1
s(g8
g13
g9
g10
tp576
I1
s(g13
g9
g11
tp577
I1
s(g248
g22
g23
tp578
I1
s(g13
g10
g14
g11
tp579
I1
s(g63
g25
g187
g64
tp580
I6
s(g387
tp581
I2
s(g169
g160
g161
g162
tp582
I1
s(g160
g162
tp583
I1
s(g499
g190
g191
tp584
I1
s(g138
g140
tp585
I40
s(g8
g13
g14
tp586
I1
s(g397
S'breast'
p587
g398
g399
tp588
I1
s(g114
g67
g68
tp589
I1
s(g48
g74
tp590
I1
s(g149
g285
tp591
I1
s(g100
g102
g166
tp592
I1
s(g66
g114
g67
g122
g68
tp593
I1
s(g99
g101
g166
tp594
I2
s(g99
g166
tp595
I2
s(g302
tp596
I7087
s(g170
g160
g162
tp597
I1
s(g8
g10
g14
g11
tp598
I1
s(S'axillary'
p599
g301
g302
tp600
I7067
s(g457
tp601
I1
s(g48
g52
g50
tp602
I1
s(g227
S'slide'
p603
tp604
I66
s(g444
g110
tp605
I265
s(g8
g13
g9
tp606
I1
s(S'ki67'
p607
tp608
I1
s(g55
tp609
I2
s(g206
g544
tp610
I9625
s(g208
g132
g133
g142
g134
tp611
I1
s(g99
g100
tp612
I2
s(g8
g13
g9
g11
tp613
I1
s(g25
g26
g64
tp614
I1
s(g179
g436
g453
g180
g181
tp615
I1
s(g94
g22
g23
g95
tp616
I1
s(g54
g55
g56
g87
tp617
I2
s(g345
g347
tp618
I127
s(g77
g112
g157
tp619
I1
s(g493
g90
g91
g92
tp620
I5649
s(g109
tp621
I265
s(g401
tp622
I1953
s(g9
g10
g14
tp623
I1
s(g320
g425
tp624
I6
s(g33
g508
g34
tp625
I12
s(g94
g22
g23
tp626
I1
s(g122
g69
tp627
I2
s(g28
g94
g248
g22
g23
g95
tp628
I1
s(g63
g25
g187
tp629
I12
s(g77
g79
g112
g157
tp630
I1
s(g327
tp631
I1930
s(g63
g26
g187
g64
tp632
I1
s(g48
g73
g49
g52
tp633
I1
s(g599
g302
tp634
I7067
s(g156
g77
g78
tp635
I1
s(g64
tp636
I8
s(g73
g49
g74
tp637
I1
s(g187
g64
tp638
I6
s(g208
g133
tp639
I2
s(g48
g73
g50
tp640
I1
s(g248
g22
g23
g95
tp641
I1
s(g73
g49
g52
g74
tp642
I1
s(g16
g17
g3
g4
tp643
I1
s(g4
tp644
I2
s(S'dcis'
p645
g365
tp646
I3672
s(S'excision'
p647
g46
tp648
I7579
s(g63
g25
g26
g187
g64
tp649
I1
s(g8
g13
tp650
I1
s(g9
g14
tp651
I1
s(g66
g67
g122
g69
tp652
I1
s(S'1'
p653
S'67'
p654
S'tumor'
p655
tp656
I1
s(g156
g112
g157
tp657
I1
s(g327
g563
g329
tp658
I1849
s(g287
S'metastasis'
p659
g288
tp660
I1649
s(g77
g78
g157
tp661
I1
s(g397
g587
S'excision'
p662
g398
g399
tp663
I1
s(S'component'
p664
g645
tp665
I3672
s(g117
g118
g119
S'margin'
p666
tp667
I1
s(S'breast'
p668
g477
g478
tp669
I1
s(S'2'
p670
g6
tp671
I2
s(g244
g245
tp672
I40
s(g216
tp673
I3889
s(g63
g25
g26
g64
tp674
I1
s(g28
g248
g22
tp675
I1
s(g48
g73
g52
g74
g50
tp676
I1
s(g156
g79
g112
tp677
I1
s(g16
g1
g17
g2
g4
tp678
I1
s(g42
g71
g44
tp679
I37
s(g10
g14
g11
tp680
I1
s(g473
g474
tp681
I1
s(g118
g119
g666
tp682
I1
s(S'pr'
p683
tp684
I1581
s(g493
g90
tp685
I5649
s(g179
g453
g180
g181
tp686
I1
s(g102
g103
g166
tp687
I1
s(S'staging'
p688
tp689
I1981
s(g244
g246
tp690
I40
s(g10
g11
tp691
I1
s(g117
g118
g428
g119
g666
tp692
I1
s(g67
g69
tp693
I1
s(g397
g399
tp694
I1
s(g49
g50
tp695
I1
s(g99
g101
g102
g103
g166
tp696
I1
s(g160
g161
tp697
I6
s(g28
g248
g23
g95
tp698
I1
s(g195
g39
tp699
I38
s(g55
g56
g87
tp700
I2
s(g156
g78
g79
g157
tp701
I1
s(g156
g77
g78
g79
g112
tp702
I1
s(g486
g473
g474
g475
tp703
I1
s(g31
tp704
I1
s(g66
g122
g69
tp705
I2
s(g48
g73
g52
tp706
I1
s(g99
g101
g102
tp707
I1
s(g8
g14
tp708
I1
s(g28
g248
tp709
I1
s(g1
g4
tp710
I2
s(g208
g132
g133
tp711
I2
s(g30
tp712
I1
s(g2
g3
g4
tp713
I1
s(g13
g9
g10
g14
tp714
I1
s(g169
g160
tp715
I7
s(g114
g67
tp716
I1
s(g285
tp717
I2
s(g253
S'cancer'
p718
tp719
I8
s(g101
g102
g103
tp720
I1
s(g73
g52
g50
tp721
I1
s(g48
g49
g74
tp722
I1
s(g156
g78
tp723
I1
s(g66
g114
g67
g68
g69
tp724
I1
s(g73
g49
g52
g50
tp725
I1
s(g397
g662
g398
g399
tp726
I1
s(g156
g77
g79
g112
g157
tp727
I1
s(g653
g654
tp728
I3
s(g453
g180
g181
tp729
I1
s(g28
g248
g22
g23
g95
tp730
I1
s(g1
g17
g2
tp731
I1
s(g521
tp732
I19
s(g327
g328
g563
tp733
I1849
s(g105
g106
tp734
I1
s(g17
g2
g3
g4
tp735
I1
s(g1
g2
g4
tp736
I1
s(g73
g49
g50
tp737
I1
s(S'invasive'
p738
tp739
I1925
s(g659
g288
tp740
I1649
s(g156
g78
g157
tp741
I1
s(g49
g74
g50
tp742
I1
s(g533
g489
tp743
I49
s(S'67'
p744
S'high'
p745
tp746
I5
s(g670
tp747
I2
s(g9
g10
g11
tp748
I1
s(g487
g473
g474
g475
tp749
I1
s(S'67'
p750
S'p53'
p751
tp752
I2
s(g73
g74
g50
tp753
I1
s(g100
g102
g103
tp754
I1
s(g99
g100
g103
g166
tp755
I1
s(g170
g160
g161
g162
tp756
I1
s(g99
g100
g102
g166
tp757
I1
s(S'histologic'
p758
S'type'
p759
tp760
I1924
s(g156
g77
g79
g112
tp761
I1
s(g287
g659
tp762
I1649
s(g156
g112
tp763
I1
s(g515
tp764
I1983
s(g99
g102
g166
tp765
I1
s(g99
g100
g102
g103
tp766
I1
s(g156
g77
g78
g79
g112
g157
tp767
I1
s(g42
g43
tp768
I37
s(g8
g13
g10
g14
g11
tp769
I1
s(g101
g102
tp770
I1
s(g499
tp771
I1
s(g153
g405
tp772
I1
s(g66
g114
g69
tp773
I2
s(g28
g94
g248
g22
g95
tp774
I1
s(g138
g139
tp775
I40
s(g180
g181
tp776
I1
s(g17
g4
tp777
I1
s(g42
g71
tp778
I37
s(S'dcis'
p779
S'tumor'
p780
tp781
I127
s(g156
g77
g79
tp782
I1
s(g345
g346
tp783
I62
s(g378
g105
tp784
I1
s(g397
g587
g662
g399
tp785
I1
s(g106
g107
tp786
I1
s(g16
g3
g4
tp787
I2
s(g493
g90
g91
tp788
I5649
s(S'67'
p789
S'low'
p790
tp791
I1
s(g284
g149
tp792
I1
s(g208
g133
g142
tp793
I2
s(g109
g444
g110
tp794
I265
s(g499
g191
tp795
I1
s(g463
g738
tp796
I1925
s(g156
g77
g78
g112
tp797
I1
s(S'lcis'
p798
tp799
I1917
s(g368
tp800
I3964
s(S'dcis'
p801
S'invasive'
p802
tp803
I1
s(g16
g1
g2
g4
tp804
I1
s(g664
tp805
I3672
s(g48
g73
g49
tp806
I1
s(S'locations'
p807
tp808
I1797
s(g227
g263
g603
tp809
I66
s(g345
tp810
I1941
s(g486
g487
g473
g474
g475
tp811
I1
s(g790
tp812
I1
s(g66
g114
g67
g69
tp813
I1
s(g654
g655
tp814
I1
s(g170
g160
g161
tp815
I6
s(g390
g391
tp816
I1
s(g54
g55
g57
tp817
I1
s(g66
g68
g69
tp818
I1
s(g133
g142
tp819
I2
s(g55
g56
tp820
I2
s(g99
g100
g103
tp821
I1
s(S'histologic'
p822
S'size'
p823
tp824
I1
s(g284
g285
g355
tp825
I1
s(g573
tp826
I1
s(g28
g94
g248
g22
tp827
I1
s(g647
tp828
I7592
s(g284
g149
g285
tp829
I1
s(g28
tp830
I1
s(g68
g69
tp831
I1
s(g380
S'extranodal'
p832
tp833
I1647
s(g156
g79
tp834
I1
s(g653
tp835
I4
s(g17
tp836
I1
s(g132
g133
tp837
I2
s(g758
tp838
I1927
s(g169
g160
g161
tp839
I6
s(g73
g52
tp840
I1
s(S'67'
p841
S'left'
p842
tp843
I1
s(g486
g473
g474
tp844
I1
s(g48
g74
g50
tp845
I1
s(g17
g2
g3
tp846
I1
s(g13
g9
g10
tp847
I1
s(g63
g187
g64
tp848
I6
s(g246
tp849
I80
s(g73
g49
g52
tp850
I1
s(g156
g79
g157
tp851
I1
s(g54
g55
g56
tp852
I2
s(g779
S'markers'
p853
g780
tp854
I127
s(g118
g428
g119
g666
tp855
I1
s(g105
g107
tp856
I1
s(g83
g85
tp857
I3148
s(g132
g133
g142
tp858
I2
s(g28
g22
tp859
I1
s(g218
g310
tp860
I1853
s(g16
g17
g4
tp861
I1
s(g407
tp862
I43
s(g28
g94
g22
g23
tp863
I1
s(g174
g206
g544
tp864
I9498
s(g48
g52
tp865
I1
s(g346
g347
tp866
I62
s(g327
g328
g563
g329
tp867
I1849
s(g99
g100
g101
g102
tp868
I1
s(g28
g94
g248
g22
g23
tp869
I1
s(g310
g219
tp870
I1853
s(g378
g106
tp871
I1
s(g16
g2
g4
tp872
I1
s(g759
tp873
I1924
s(g28
g94
tp874
I1
s(g1
g17
tp875
I1
s(g745
tp876
I6
s(g66
g114
g67
tp877
I1
s(g1
g17
g3
g4
tp878
I1
s(g688
g332
tp879
I1981
s(g13
g10
g14
tp880
I1
s(g94
g248
g22
g23
tp881
I1
s(g28
g94
g23
tp882
I1
s(g253
g718
g254
tp883
I8
s(g67
g122
g68
tp884
I1
s(g28
g94
g22
g95
tp885
I1
s(g63
g26
g187
tp886
I2
s(g94
g248
g22
g23
g95
tp887
I1
s(g48
g73
g52
g50
tp888
I1
s(S'calcifications'
p889
g807
tp890
I1797
s(g149
g285
g355
tp891
I1
s(g28
g94
g248
g23
g95
tp892
I1
s(g779
g853
tp893
I127
s(g100
g101
g102
tp894
I1
s(g176
g83
g85
tp895
I3148
s(g236
tp896
I584
s(g8
g13
g10
g14
tp897
I1
s(g169
g170
g160
g161
tp898
I6
s(g1
g17
g2
g3
g4
tp899
I1
s(g8
tp900
I1
s(g13
g10
g11
tp901
I1
s(g653
g655
tp902
I1
s(g100
g102
g103
g166
tp903
I1
s(g402
tp904
I1966
s(g66
g69
tp905
I2
s(g13
g9
g14
g11
tp906
I1
s(g169
g170
g160
tp907
I6
s(g832
tp908
I1647
s(g487
g473
g474
tp909
I1
s(g99
g102
tp910
I1
s(g223
g259
g201
tp911
I1760
s(g50
tp912
I1
s(g8
g13
g14
g11
tp913
I1
s(g16
g17
g2
g3
g4
tp914
I1
s(S'cancer'
p915
g801
g802
tp916
I1
s(g259
tp917
I1763
s(g153
g154
g405
tp918
I1
s(g347
tp919
I127
s(g156
g77
g157
tp920
I1
s(g90
g91
tp921
I5669
s(g77
g78
g79
g112
g157
tp922
I1
s(g508
g34
g35
tp923
I12
s(g170
g160
tp924
I6
s(g664
g365
tp925
I3672
s(g436
g180
g181
tp926
I1
s(g101
g102
g103
g166
tp927
I1
s(g160
tp928
I8
s(g8
g9
g10
g14
tp929
I1
s(g63
g26
tp930
I2
s(g71
g43
tp931
I37
s(g378
g106
g107
tp932
I1
s(g40
tp933
I38
s(g915
g801
tp934
I1
s(g397
g587
g399
tp935
I1
s(g67
g122
tp936
I1
s(g99
g100
g102
tp937
I1
s(g25
g26
g187
tp938
I2
s(g71
tp939
I37
s(g99
tp940
I2
s(g390
g392
tp941
I1
s(g48
g49
g52
g50
tp942
I1
s(g84
g85
tp943
I3148
s(g13
g9
g10
g11
tp944
I1
s(g346
tp945
I62
s(g16
g1
g3
g4
tp946
I2
s(g285
g355
tp947
I1
s(g263
g603
tp948
I66
s(g378
g105
g106
tp949
I1
s(S'67'
p950
g566
tp951
I1
s(g378
tp952
I1
s(g1
g17
g4
tp953
I1
s(g508
g34
tp954
I12
s(S'her2'
p955
S'pr'
p956
tp957
I1
s(g603
tp958
I66
s(g204
tp959
I1
s(g73
g52
g74
g50
tp960
I1
s(g397
g662
g399
tp961
I1
s(g114
g67
g68
g69
tp962
I1
s(g99
g100
g166
tp963
I2
s(g542
g461
tp964
I1
s(g48
g52
g74
tp965
I1
s(g90
g92
tp966
I5669
s(g77
g78
tp967
I1
s(g63
g25
g26
g187
tp968
I2
s(g63
g64
tp969
I7
s(g276
g425
tp970
I6
s(S'lcis'
p971
g446
tp972
I1
s(g42
g71
g43
tp973
I37
s(g259
g201
tp974
I1762
s(g77
g78
g79
g112
tp975
I1
s(g99
g102
g103
tp976
I1
s(g223
g201
tp977
I1760
s(g156
g79
g112
g157
tp978
I1
s(S'grade'
p979
tp980
I1969
s(g599
tp981
I7068
s(g99
g101
g103
tp982
I1
s(g48
g49
g52
g74
tp983
I1
s(g99
g101
g102
g103
tp984
I1
s(g599
g301
tp985
I7068
s(g659
tp986
I1649
s(g284
g149
g285
g355
tp987
I1
s(g219
tp988
I1853
s(g66
g114
g68
g69
tp989
I1
s(g77
g79
g157
tp990
I1
s(g85
tp991
I3148
s(g664
g645
g365
tp992
I3672
s(g117
g118
g428
g119
tp993
I1
s(g99
g100
g102
g103
g166
tp994
I1
s(g156
g78
g112
tp995
I1
s(g153
tp996
I1
s(g156
g78
g79
g112
tp997
I1
s(g55
g57
tp998
I1
s(g42
g44
tp999
I37
s(g42
g71
g43
g44
tp1000
I37
s.